
CST455_Midterm.elf:     file format elf32-littlenios2
CST455_Midterm.elf
architecture: nios2:r1, flags 0x00000112:
EXEC_P, HAS_SYMS, D_PAGED
start address 0x04000364

Program Header:
    LOAD off    0x00001000 vaddr 0x04000000 paddr 0x04000000 align 2**12
         filesz 0x00000020 memsz 0x00000020 flags r-x
    LOAD off    0x00001020 vaddr 0x04000020 paddr 0x04000020 align 2**12
         filesz 0x0000cc5c memsz 0x0000cc5c flags r-x
    LOAD off    0x0000dc7c vaddr 0x0400cc7c paddr 0x0400e6ec align 2**12
         filesz 0x00001a70 memsz 0x00001a70 flags rw-
    LOAD off    0x0000015c vaddr 0x0401015c paddr 0x0401015c align 2**12
         filesz 0x00000000 memsz 0x0080026c flags rw-

Sections:
Idx Name          Size      VMA       LMA       File off  Algn
  0 .entry        00000020  04000000  04000000  00001000  2**5
                  CONTENTS, ALLOC, LOAD, READONLY, CODE
  1 .exceptions   00000344  04000020  04000020  00001020  2**2
                  CONTENTS, ALLOC, LOAD, READONLY, CODE
  2 .text         0000c884  04000364  04000364  00001364  2**2
                  CONTENTS, ALLOC, LOAD, READONLY, CODE
  3 .rodata       00000094  0400cbe8  0400cbe8  0000dbe8  2**2
                  CONTENTS, ALLOC, LOAD, READONLY, DATA
  4 .rwdata       00001a70  0400cc7c  0400e6ec  0000dc7c  2**2
                  CONTENTS, ALLOC, LOAD, DATA, SMALL_DATA
  5 .bss          008002ed  0401015c  0401015c  0001015c  2**2
                  ALLOC, SMALL_DATA
  6 .SDRAM        00000000  048103c8  048103c8  0000f6ec  2**0
                  CONTENTS
  7 .comment      0000002d  00000000  00000000  0000f6ec  2**0
                  CONTENTS, READONLY
  8 .debug_aranges 00000b90  00000000  00000000  0000f720  2**3
                  CONTENTS, READONLY, DEBUGGING, OCTETS
  9 .debug_info   0001c40b  00000000  00000000  000102b0  2**0
                  CONTENTS, READONLY, DEBUGGING, OCTETS
 10 .debug_abbrev 00007f3b  00000000  00000000  0002c6bb  2**0
                  CONTENTS, READONLY, DEBUGGING, OCTETS
 11 .debug_line   000085a0  00000000  00000000  000345f6  2**0
                  CONTENTS, READONLY, DEBUGGING, OCTETS
 12 .debug_frame  00002b10  00000000  00000000  0003cb98  2**2
                  CONTENTS, READONLY, DEBUGGING, OCTETS
 13 .debug_str    0000354f  00000000  00000000  0003f6a8  2**0
                  CONTENTS, READONLY, DEBUGGING, OCTETS
 14 .debug_alt_sim_info 00000010  00000000  00000000  00042bf8  2**2
                  CONTENTS, READONLY, DEBUGGING, OCTETS
 15 .debug_ranges 00000098  00000000  00000000  00042c08  2**3
                  CONTENTS, READONLY, DEBUGGING, OCTETS
 16 .debug_line_str 000017b8  00000000  00000000  00042ca0  2**0
                  CONTENTS, READONLY, DEBUGGING, OCTETS
 17 .debug_loclists 000041c3  00000000  00000000  00044458  2**0
                  CONTENTS, READONLY, DEBUGGING, OCTETS
 18 .debug_rnglists 000005db  00000000  00000000  0004861b  2**0
                  CONTENTS, READONLY, DEBUGGING, OCTETS
 19 .thread_model 00000003  00000000  00000000  0004ca31  2**0
                  CONTENTS, READONLY
 20 .cpu          0000000e  00000000  00000000  0004ca34  2**0
                  CONTENTS, READONLY
 21 .qsys         00000001  00000000  00000000  0004ca42  2**0
                  CONTENTS, READONLY
 22 .simulation_enabled 00000001  00000000  00000000  0004ca43  2**0
                  CONTENTS, READONLY
 23 .stderr_dev   00000005  00000000  00000000  0004ca44  2**0
                  CONTENTS, READONLY
 24 .stdin_dev    00000005  00000000  00000000  0004ca49  2**0
                  CONTENTS, READONLY
 25 .stdout_dev   00000005  00000000  00000000  0004ca4e  2**0
                  CONTENTS, READONLY
 26 .sopc_system_name 0000000e  00000000  00000000  0004ca53  2**0
                  CONTENTS, READONLY
 27 .quartus_project_dir 00000041  00000000  00000000  0004ca61  2**0
                  CONTENTS, READONLY
 28 .sopcinfo     0005c41c  00000000  00000000  0004caa2  2**0
                  CONTENTS, READONLY
SYMBOL TABLE:
04000000 l    d  .entry	00000000 .entry
04000020 l    d  .exceptions	00000000 .exceptions
04000364 l    d  .text	00000000 .text
0400cbe8 l    d  .rodata	00000000 .rodata
0400cc7c l    d  .rwdata	00000000 .rwdata
0401015c l    d  .bss	00000000 .bss
048103c8 l    d  .SDRAM	00000000 .SDRAM
00000000 l    d  .comment	00000000 .comment
00000000 l    d  .debug_aranges	00000000 .debug_aranges
00000000 l    d  .debug_info	00000000 .debug_info
00000000 l    d  .debug_abbrev	00000000 .debug_abbrev
00000000 l    d  .debug_line	00000000 .debug_line
00000000 l    d  .debug_frame	00000000 .debug_frame
00000000 l    d  .debug_str	00000000 .debug_str
00000000 l    d  .debug_alt_sim_info	00000000 .debug_alt_sim_info
00000000 l    d  .debug_ranges	00000000 .debug_ranges
00000000 l    d  .debug_line_str	00000000 .debug_line_str
00000000 l    d  .debug_loclists	00000000 .debug_loclists
00000000 l    d  .debug_rnglists	00000000 .debug_rnglists
00000000 l    df *ABS*	00000000 crt0.o
0400039c l       .text	00000000 alt_after_alt_main
00000000 l    df *ABS*	00000000 port_asm.o
04000020 l       .exceptions	00000000 save_context
0400009c l       .exceptions	00000000 save_sp_to_pxCurrentTCB
04000104 l       .exceptions	00000000 irq_test_user
0400016c l       .exceptions	00000000 restore_context
04000124 l       .exceptions	00000000 soft_exceptions
04000134 l       .exceptions	00000000 call_scheduler
04000148 l       .exceptions	00000000 exceptions_unknown_user
00000000 l    df *ABS*	00000000 alt_irq_handler.c
00000000 l    df *ABS*	00000000 alt_instruction_exception_entry.c
00000000 l    df *ABS*	00000000 croutine.c
00000000 l    df *ABS*	00000000 event_groups.c
04000a30 l     F .text	00000070 prvTestWaitCondition
00000000 l    df *ABS*	00000000 list.c
00000000 l    df *ABS*	00000000 port.c
04000d30 l     F .text	0000002c prvReadGp
04000e94 l     F .text	00000090 prvSetupTimerInterrupt
00000000 l    df *ABS*	00000000 heap_1.c
040101d8 l     O .bss	00800000 ucHeap
0401015c l     O .bss	00000004 xNextFreeByte
04010160 l     O .bss	00000004 pucAlignedHeap.0
00000000 l    df *ABS*	00000000 queue.c
0400157c l     F .text	00000084 prvInitialiseNewQueue
04001600 l     F .text	00000060 prvInitialiseMutex
04002438 l     F .text	0000018c prvCopyDataToQueue
040027ec l     F .text	00000058 prvIsQueueFull
04002660 l     F .text	000000f4 prvUnlockQueue
040025c4 l     F .text	0000009c prvCopyDataFromQueue
04002754 l     F .text	00000050 prvIsQueueEmpty
040023e8 l     F .text	00000050 prvGetDisinheritPriorityAfterTimeout
00000000 l    df *ABS*	00000000 stream_buffer.c
04003734 l     F .text	00000080 prvInitialiseNewStreamBuffer
040036c0 l     F .text	00000074 prvBytesInBuffer
04002e94 l     F .text	000000d0 prvWriteMessageToBuffer
04003500 l     F .text	000000e0 prvWriteBytesToBuffer
0400323c l     F .text	000000e0 prvReadMessageFromBuffer
040035e0 l     F .text	000000e0 prvReadBytesFromBuffer
00000000 l    df *ABS*	00000000 tasks.c
048101d8 l     O .bss	00000064 pxReadyTasksLists
0481023c l     O .bss	00000014 xDelayedTaskList1
04810250 l     O .bss	00000014 xDelayedTaskList2
04010168 l     O .bss	00000004 pxDelayedTaskList
0401016c l     O .bss	00000004 pxOverflowDelayedTaskList
04810264 l     O .bss	00000014 xPendingReadyList
04810278 l     O .bss	00000014 xTasksWaitingTermination
04010170 l     O .bss	00000004 uxDeletedTasksWaitingCleanUp
0481028c l     O .bss	00000014 xSuspendedTaskList
04010174 l     O .bss	00000004 uxCurrentNumberOfTasks
04010178 l     O .bss	00000004 xTickCount
0401017c l     O .bss	00000004 uxTopReadyPriority
04010180 l     O .bss	00000004 xSchedulerRunning
04010184 l     O .bss	00000004 xPendedTicks
04010188 l     O .bss	00000004 xYieldPending
0401018c l     O .bss	00000004 xNumOfOverflows
04010190 l     O .bss	00000004 uxTaskNumber
04010194 l     O .bss	00000004 xNextTaskUnblockTime
04010198 l     O .bss	00000004 xIdleTaskHandle
0401019c l     O .bss	00000004 uxSchedulerSuspended
040038a8 l     F .text	000001ac prvInitialiseNewTask
04003a54 l     F .text	000001b8 prvAddNewTaskToReadyList
04005700 l     F .text	000000c0 prvInitialiseTaskLists
04005948 l     F .text	00000048 prvResetNextTaskUnblockTime
04005904 l     F .text	00000044 prvDeleteTCB
04006e3c l     F .text	00000144 prvAddCurrentTaskToDelayedList
0400427c l     F .text	0000006c prvTaskIsTaskSuspended
040056e4 l     F .text	0000001c prvIdleTask
040057c0 l     F .text	00000080 prvCheckTasksWaitingTermination
04005840 l     F .text	00000064 prvTaskCheckFreeStackSpace
00000000 l    df *ABS*	00000000 timers.c
00000000 l    df *ABS*	00000000 main.c
00000000 l    df *ABS*	00000000 lib2-divmod.c
00000000 l    df *ABS*	00000000 lib2-mul.c
00000000 l    df *ABS*	00000000 memcpy.c
00000000 l    df *ABS*	00000000 memset.c
00000000 l    df *ABS*	00000000 puts.c
00000000 l    df *ABS*	00000000 strlen.c
00000000 l    df *ABS*	00000000 findfp.c
04007c38 l     F .text	00000008 __fp_lock
04007c4c l     F .text	00000008 __fp_unlock
04007c54 l     F .text	00000168 __sinit.part.0
00000000 l    df *ABS*	00000000 fvwrite.c
00000000 l    df *ABS*	00000000 fwalk.c
00000000 l    df *ABS*	00000000 impure.c
0400cc7c l     O .rwdata	00000424 impure_data
00000000 l    df *ABS*	00000000 mallocr.c
00000000 l    df *ABS*	00000000 memchr.c
00000000 l    df *ABS*	00000000 memmove.c
00000000 l    df *ABS*	00000000 mallocr.c
00000000 l    df *ABS*	00000000 sbrkr.c
00000000 l    df *ABS*	00000000 stdio.c
00000000 l    df *ABS*	00000000 writer.c
00000000 l    df *ABS*	00000000 wsetup.c
00000000 l    df *ABS*	00000000 closer.c
00000000 l    df *ABS*	00000000 fclose.c
00000000 l    df *ABS*	00000000 fflush.c
00000000 l    df *ABS*	00000000 mallocr.c
00000000 l    df *ABS*	00000000 int_errno.c
00000000 l    df *ABS*	00000000 lseekr.c
00000000 l    df *ABS*	00000000 makebuf.c
00000000 l    df *ABS*	00000000 readr.c
00000000 l    df *ABS*	00000000 fstatr.c
00000000 l    df *ABS*	00000000 isattyr.c
00000000 l    df *ABS*	00000000 alt_close.c
0400a4e4 l     F .text	0000003c alt_get_errno
00000000 l    df *ABS*	00000000 alt_dev.c
0400a5fc l     F .text	0000002c alt_dev_null_write
00000000 l    df *ABS*	00000000 alt_errno.c
00000000 l    df *ABS*	00000000 alt_fstat.c
0400a628 l     F .text	0000003c alt_get_errno
00000000 l    df *ABS*	00000000 alt_iic.c
00000000 l    df *ABS*	00000000 alt_iic_isr_register.c
00000000 l    df *ABS*	00000000 alt_irq_vars.c
00000000 l    df *ABS*	00000000 alt_isatty.c
0400a9b8 l     F .text	0000003c alt_get_errno
00000000 l    df *ABS*	00000000 alt_load.c
0400aaa4 l     F .text	00000068 alt_load_section
00000000 l    df *ABS*	00000000 alt_lseek.c
0400ab90 l     F .text	0000003c alt_get_errno
00000000 l    df *ABS*	00000000 alt_main.c
00000000 l    df *ABS*	00000000 alt_malloc_lock.c
00000000 l    df *ABS*	00000000 alt_read.c
0400ad70 l     F .text	0000003c alt_get_errno
00000000 l    df *ABS*	00000000 alt_release_fd.c
00000000 l    df *ABS*	00000000 alt_sbrk.c
0400e6e0 l     O .rwdata	00000004 heap_end
00000000 l    df *ABS*	00000000 alt_write.c
0400afdc l     F .text	0000003c alt_get_errno
00000000 l    df *ABS*	00000000 alt_sys_init.c
0400b11c l     F .text	00000034 alt_dev_reg
0400d650 l     O .rwdata	00001060 DEBUG
00000000 l    df *ABS*	00000000 altera_avalon_jtag_uart_fd.c
00000000 l    df *ABS*	00000000 altera_avalon_jtag_uart_init.c
0400b410 l     F .text	00000214 altera_avalon_jtag_uart_irq
0400b624 l     F .text	000000a8 altera_avalon_jtag_uart_timeout
00000000 l    df *ABS*	00000000 altera_avalon_jtag_uart_ioctl.c
00000000 l    df *ABS*	00000000 altera_avalon_jtag_uart_read.c
00000000 l    df *ABS*	00000000 altera_avalon_jtag_uart_write.c
00000000 l    df *ABS*	00000000 altera_avalon_timer_sc.c
0400bc70 l     F .text	0000007c alt_avalon_timer_sc_irq
00000000 l    df *ABS*	00000000 alt_alarm_start.c
00000000 l    df *ABS*	00000000 alt_dcache_flush_all.c
00000000 l    df *ABS*	00000000 alt_dev_llist_insert.c
0400bef0 l     F .text	0000003c alt_get_errno
00000000 l    df *ABS*	00000000 alt_do_ctors.c
00000000 l    df *ABS*	00000000 alt_do_dtors.c
00000000 l    df *ABS*	00000000 alt_icache_flush_all.c
00000000 l    df *ABS*	00000000 alt_io_redirect.c
0400c130 l     F .text	000000d4 alt_open_fd
00000000 l    df *ABS*	00000000 alt_open.c
0400c280 l     F .text	0000003c alt_get_errno
0400c2bc l     F .text	000000dc alt_file_locked
00000000 l    df *ABS*	00000000 alt_tick.c
00000000 l    df *ABS*	00000000 altera_nios2_gen2_irq.c
00000000 l    df *ABS*	00000000 alt_find_dev.c
00000000 l    df *ABS*	00000000 alt_find_file.c
00000000 l    df *ABS*	00000000 alt_get_fd.c
00000000 l    df *ABS*	00000000 atexit.c
00000000 l    df *ABS*	00000000 exit.c
00000000 l    df *ABS*	00000000 memcmp.c
00000000 l    df *ABS*	00000000 __atexit.c
00000000 l    df *ABS*	00000000 __call_atexit.c
00000000 l    df *ABS*	00000000 alt_exit.c
040101c8 g     O .bss	00000004 alt_instruction_exception_handler
0400a48c g     F .text	00000058 _isatty_r
0400acac g     F .text	0000007c alt_main
04007ac0 g     F .text	000000d0 _puts_r
048102c8 g     O .bss	00000100 alt_irq
0400a138 g     F .text	00000064 _lseek_r
0400015c g       .exceptions	00000000 restore_sp_from_pxCurrentTCB
04004f70 g     F .text	000000bc vTaskPlaceOnUnorderedEventList
0400116c g     F .text	0000002c xPortGetFreeHeapSize
04000788 g     F .text	0000003c xEventGroupGetBitsFromISR
0400e6ec g       *ABS*	00000000 __flash_rwdata_start
0400724c g     F .text	00000120 taskReadSWs
048103c8 g       *ABS*	00000000 __alt_heap_start
04003e4c g     F .text	00000058 uxTaskPriorityGet
040101a0 g     O .bss	00000004 pushbutton_queue
040096ac g     F .text	0000005c __sseek
04007f7c g     F .text	00000010 __sinit
0400736c g     F .text	00000084 taskReadPBs
04007dbc g     F .text	00000078 __sfmoreglue
04002f64 g     F .text	00000160 xStreamBufferReceive
0400ad4c g     F .text	00000024 __malloc_unlock
04003d00 g     F .text	000000f0 xTaskDelayUntil
040003f4 g     F .text	00000184 xEventGroupSync
04008e5c g     F .text	00000128 memmove
04006d90 g     F .text	000000ac ulTaskGenericNotifyValueClear
04005f7c g     F .text	00000054 vTaskEnterCritical
04007f68 g     F .text	00000014 _cleanup
04001a0c g     F .text	00000108 xQueueGenericSendFromISR
04004a64 g     F .text	00000040 pcTaskGetName
04002aec g     F .text	000000a4 xStreamBufferSpacesAvailable
0400c6c8 g     F .text	00000024 altera_nios2_gen2_irq_init
040029cc g     F .text	000000b4 xStreamBufferReset
04000000 g     F .entry	0000000c __reset
040016bc g     F .text	00000090 xQueueGiveMutexRecursive
04010164 g     O .bss	00000004 pxCurrentTCB
04000020 g       *ABS*	00000000 __flash_exceptions_start
0400a42c g     F .text	00000060 _fstat_r
040101b4 g     O .bss	00000004 errno
04009624 g     F .text	00000008 __seofread
04002da0 g     F .text	000000f4 xStreamBufferSendFromISR
040101c0 g     O .bss	00000004 alt_argv
040166b0 g       *ABS*	00000000 _gp
04003ef0 g     F .text	00000268 vTaskPrioritySet
04005598 g     F .text	0000003c vTaskInternalSetTimeOutState
04000578 g     F .text	000001a8 xEventGroupWaitBits
04000f68 g     F .text	000000d4 _alt_ic_isr_register
0400d4d0 g     O .rwdata	00000180 alt_fd_list
04000e3c g     F .text	00000038 xPortStartScheduler
040046a8 g     F .text	00000048 vTaskEndScheduler
0400c6ec g     F .text	00000090 alt_find_dev
04007880 g     F .text	00000100 memcpy
04004f20 g     F .text	00000050 vTaskPlaceOnEventList
040052fc g     F .text	00000250 vTaskRemoveFromUnorderedEventList
04007c40 g     F .text	0000000c _cleanup_r
0400c204 g     F .text	0000007c alt_io_redirect
04002264 g     F .text	0000007c xQueuePeekFromISR
0400cbe8 g       *ABS*	00000000 __DTOR_END__
04007b90 g     F .text	00000010 puts
0400c0bc g     F .text	00000074 alt_exception_cause_generated_bad_addr
04001124 g     F .text	00000024 vPortFree
04001dac g     F .text	00000210 xQueueSemaphoreTake
0400b828 g     F .text	00000220 altera_avalon_jtag_uart_read
04007798 g     F .text	00000064 .hidden __udivsi3
0400a9f4 g     F .text	000000b0 isatty
040058a4 g     F .text	00000060 uxTaskGetStackHighWaterMark
04000b34 g     F .text	0000008c vListInsertEnd
040101b0 g     O .bss	00000004 __malloc_top_pad
040060b0 g     F .text	00000104 ulTaskGenericNotifyTake
040003a0 g     F .text	00000054 xEventGroupCreate
04007fc4 g     F .text	000004a8 __sfvwrite_r
04009578 g     F .text	00000058 _sbrk_r
040009b8 g     F .text	0000003c vEventGroupSetBitsCallback
04004470 g     F .text	000001a4 xTaskResumeFromISR
0400a3c8 g     F .text	00000064 _read_r
04000b08 g     F .text	0000002c vListInitialiseItem
0400e6d4 g     O .rwdata	00000004 alt_max_fd
04000f24 g     F .text	00000044 vPortSysTickHandler
04009918 g     F .text	000000f8 _fclose_r
04001c04 g     F .text	000001a8 xQueueReceive
04009c88 g     F .text	00000084 fflush
040101ac g     O .bss	00000004 __malloc_max_sbrked_mem
04003ea4 g     F .text	0000004c uxTaskPriorityGetFromISR
0400abcc g     F .text	000000e0 lseek
0400e6b4 g     O .rwdata	00000004 _global_impure_ptr
040007c4 g     F .text	00000180 xEventGroupSetBits
04008f84 g     F .text	000005f4 _realloc_r
048103c8 g       *ABS*	00000000 __bss_end
0400a8d0 g     F .text	000000e8 alt_iic_isr_register
0400c59c g     F .text	0000012c alt_tick
0400103c g     F .text	000000e8 pvPortMalloc
04007f9c g     F .text	00000014 __fp_lock_all
0400a884 g     F .text	0000004c alt_ic_irq_enabled
040023ac g     F .text	0000003c vQueueDelete
04000e74 g     F .text	00000020 vPortEndScheduler
04000aa0 g     F .text	00000068 vListInitialise
0400331c g     F .text	00000058 xStreamBufferIsEmpty
0400c4f8 g     F .text	000000a4 alt_alarm_stop
040101b8 g     O .bss	00000004 alt_irq_active
0400023c g     F .exceptions	000000c8 alt_irq_handler
0400d4a8 g     O .rwdata	00000028 alt_dev_null
040049f0 g     F .text	00000028 xTaskGetTickCount
04001858 g     F .text	000001b4 xQueueGenericSend
04002bd0 g     F .text	000001d0 xStreamBufferSend
04003478 g     F .text	00000088 xStreamBufferReceiveCompletedFromISR
0400bed0 g     F .text	00000020 alt_dcache_flush_all
04006a38 g     F .text	000002cc vTaskGenericNotifyGiveFromISR
040030c4 g     F .text	00000098 xStreamBufferNextMessageLengthBytes
04005bc0 g     F .text	000001b8 xTaskPriorityDisinherit
0400e6ec g       *ABS*	00000000 __ram_rwdata_end
0400e6cc g     O .rwdata	00000008 alt_dev_list
0400b018 g     F .text	00000104 write
0400502c g     F .text	000002d0 xTaskRemoveFromEventList
0400cc7c g       *ABS*	00000000 __ram_rodata_end
0400a664 g     F .text	000000bc fstat
04000720 g     F .text	00000068 xEventGroupClearBits
04000000 g       *ABS*	00000000 __alt_mem_SDRAM
04001fbc g     F .text	000001b0 xQueuePeek
040077fc g     F .text	0000005c .hidden __umodsi3
048103c8 g       *ABS*	00000000 end
0400315c g     F .text	000000e0 xStreamBufferReceiveFromISR
04003c0c g     F .text	000000f4 vTaskDelete
0400b350 g     F .text	000000c0 altera_avalon_jtag_uart_init
04000304 g     F .exceptions	00000060 alt_instruction_exception_entry
04006078 g     F .text	00000038 pvTaskIncrementMutexHeldCount
0400cbe8 g       *ABS*	00000000 __CTOR_LIST__
08000000 g       *ABS*	00000000 __alt_stack_pointer
0400bcec g     F .text	00000084 alt_avalon_timer_sc_init
0400ba48 g     F .text	00000228 altera_avalon_jtag_uart_write
04007f8c g     F .text	00000004 __sfp_lock_acquire
04008d60 g     F .text	000000fc memchr
040055d4 g     F .text	000000e8 xTaskCheckForTimeOut
04009e30 g     F .text	00000308 _free_r
040059b8 g     F .text	00000208 xTaskPriorityInherit
0400ca8c g     F .text	00000120 __call_exitprocs
040061b4 g     F .text	00000164 xTaskGenericNotifyWait
04002968 g     F .text	00000064 vStreamBufferDelete
0400e6bc g     O .rwdata	00000004 __malloc_sbrk_base
04000364 g     F .text	0000003c _start
040101cc g     O .bss	00000004 _alt_tick_rate
040046f0 g     F .text	0000002c vTaskSuspendAll
04003374 g     F .text	0000007c xStreamBufferIsFull
04004a18 g     F .text	0000002c xTaskGetTickCountFromISR
040101d0 g     O .bss	00000008 _alt_nticks
0400adac g     F .text	00000108 read
0400b18c g     F .text	00000060 alt_sys_init
04000c98 g     F .text	00000098 uxListRemove
0400c9fc g     F .text	00000090 __register_exitproc
04002894 g     F .text	000000d4 xStreamBufferGenericCreate
0400b6cc g     F .text	00000068 altera_avalon_jtag_uart_close
04007858 g     F .text	00000028 .hidden __mulsi3
0400cc7c g       *ABS*	00000000 __ram_rwdata_start
0400cbe8 g       *ABS*	00000000 __ram_rodata_start
048102a0 g     O .bss	00000028 __malloc_current_mallinfo
040042e8 g     F .text	00000188 vTaskResume
04004e30 g     F .text	000000f0 vTaskSwitchContext
0400b1ec g     F .text	00000060 altera_avalon_jtag_uart_read_fd
0400c884 g     F .text	000000b8 alt_get_fd
040098c0 g     F .text	00000058 _close_r
0400c984 g     F .text	00000078 memcmp
0400b2ac g     F .text	00000050 altera_avalon_jtag_uart_close_fd
048103c8 g       *ABS*	00000000 __alt_stack_base
0400b2fc g     F .text	00000054 altera_avalon_jtag_uart_ioctl_fd
04009774 g     F .text	0000014c __swsetup_r
04004158 g     F .text	00000124 vTaskSuspend
04007e34 g     F .text	00000134 __sfp
04004aa4 g     F .text	00000050 xTaskCatchUpTicks
04004a44 g     F .text	00000020 uxTaskGetNumberOfTasks
0400d0a0 g     O .rwdata	00000408 __malloc_av_
04007f98 g     F .text	00000004 __sinit_lock_release
040095d0 g     F .text	00000054 __sread
0400c77c g     F .text	00000108 alt_find_file
0400bf2c g     F .text	000000a8 alt_dev_llist_insert
0400ad28 g     F .text	00000024 __malloc_lock
0400af24 g     F .text	000000b8 sbrk
0400174c g     F .text	0000009c xQueueTakeMutexRecursive
04009c28 g     F .text	00000060 _fflush_r
04000944 g     F .text	00000074 vEventGroupDelete
04006318 g     F .text	00000348 xTaskGenericNotify
0401015c g       *ABS*	00000000 __bss_start
040101a4 g     O .bss	00000004 switch_queue
04007980 g     F .text	00000140 memset
04006f80 g     F .text	000000f0 main
040101c4 g     O .bss	00000004 alt_envp
040101a8 g     O .bss	00000004 __malloc_max_total_mem
0400b24c g     F .text	00000060 altera_avalon_jtag_uart_write_fd
04000bc0 g     F .text	000000d8 vListInsert
04009708 g     F .text	00000008 __sclose
08000000 g       *ABS*	00000000 __alt_heap_limit
04009a10 g     F .text	00000010 fclose
040085ac g     F .text	000007b4 _malloc_r
0400e6d8 g     O .rwdata	00000004 alt_errno
0400846c g     F .text	00000098 _fwalk
0400216c g     F .text	000000f8 xQueueReceiveFromISR
04005990 g     F .text	00000028 xTaskGetCurrentTaskHandle
040076a4 g     F .text	00000080 .hidden __divsi3
040013d8 g     F .text	000001a4 xQueueGenericCreate
04009d0c g     F .text	00000124 _malloc_trim_r
0400cbe8 g       *ABS*	00000000 __CTOR_END__
040017e8 g     F .text	00000070 xQueueCreateCountingSemaphore
0400cbe8 g       *ABS*	00000000 __flash_rodata_start
0400cbe8 g       *ABS*	00000000 __DTOR_LIST__
04002a80 g     F .text	0000006c xStreamBufferSetTriggerLevel
04006660 g     F .text	000003d8 xTaskGenericNotifyFromISR
0400b150 g     F .text	0000003c alt_irq_init
0400aeb4 g     F .text	00000070 alt_release_fd
0400471c g     F .text	000002d4 xTaskResumeAll
0400e6b0 g     O .rwdata	00000004 uxTopUsedPriority
04002320 g     F .text	00000054 uxQueueSpacesAvailable
04004614 g     F .text	00000094 vTaskStartScheduler
0400c93c g     F .text	00000014 atexit
04009710 g     F .text	00000064 _write_r
04002844 g     F .text	00000050 xQueueIsQueueFullFromISR
0400e6b8 g     O .rwdata	00000004 _impure_ptr
040101bc g     O .bss	00000004 alt_argc
04009a20 g     F .text	00000208 __sflush_r
0400c038 g     F .text	00000064 _do_dtors
04000020 g       .exceptions	00000000 alt_irq_entry
04007fb0 g     F .text	00000014 __fp_unlock_all
040056bc g     F .text	00000028 vTaskMissedYield
0400e6c4 g     O .rwdata	00000008 alt_fs_list
040022e0 g     F .text	00000040 uxQueueMessagesWaiting
04004af4 g     F .text	0000033c xTaskIncrementTick
04000020 g       *ABS*	00000000 __ram_exceptions_start
0400a33c g     F .text	0000008c __swhatbuf_r
0400a720 g     F .text	00000050 alt_ic_isr_register
04001198 g     F .text	00000240 xQueueGenericReset
0400e6ec g       *ABS*	00000000 _edata
048103c8 g       *ABS*	00000000 _end
04000364 g       *ABS*	00000000 __ram_exceptions_end
0400b734 g     F .text	000000f4 altera_avalon_jtag_uart_ioctl
040037b4 g     F .text	000000f4 xTaskCreate
04001148 g     F .text	00000024 vPortInitialiseBlocks
04006d04 g     F .text	0000008c xTaskGenericNotifyStateClear
0400a7f8 g     F .text	0000008c alt_ic_irq_disable
0400962c g     F .text	00000080 __swrite
0400e6c0 g     O .rwdata	00000004 __malloc_trim_threshold
0400c950 g     F .text	00000034 exit
04008504 g     F .text	000000a8 _fwalk_reent
040073f0 g     F .text	000002b4 taskLEDControl
04007724 g     F .text	00000074 .hidden __modsi3
04003df0 g     F .text	0000005c vTaskDelay
08000000 g       *ABS*	00000000 __alt_data_end
04000020 g     F .exceptions	00000000 alt_exception
04007f90 g     F .text	00000004 __sfp_lock_release
04005d78 g     F .text	00000204 vTaskPriorityDisinheritAfterTimeout
0400cbac g     F .text	0000003c _exit
0400bd70 g     F .text	00000160 alt_alarm_start
0400a19c g     F .text	000001a0 __smakebuf_r
04005fd0 g     F .text	00000064 vTaskExitCritical
04007ba0 g     F .text	00000098 strlen
04000d5c g     F .text	000000e0 pxPortInitialiseStack
0400c398 g     F .text	00000160 open
0400c09c g     F .text	00000020 alt_icache_flush_all
0400554c g     F .text	0000004c vTaskSetTimeOutState
0400e6dc g     O .rwdata	00000004 alt_priority_mask
0400a770 g     F .text	00000088 alt_ic_irq_enable
04002374 g     F .text	00000038 uxQueueMessagesWaitingFromISR
040027a4 g     F .text	00000048 xQueueIsQueueEmptyFromISR
04002b90 g     F .text	00000040 xStreamBufferBytesAvailable
0400e6e4 g     O .rwdata	00000008 alt_alarm_list
0400bfd4 g     F .text	00000064 _do_ctors
04006034 g     F .text	00000044 uxTaskResetEventItemValue
04001660 g     F .text	0000005c xQueueCreateMutex
0400a520 g     F .text	000000dc close
0400ab0c g     F .text	00000084 alt_load
04007070 g     F .text	000001dc taskDisplaySevenSeg
040009f4 g     F .text	0000003c vEventGroupClearBitsCallback
040033f0 g     F .text	00000088 xStreamBufferSendCompletedFromISR
04001b14 g     F .text	000000f0 xQueueGiveFromISR
04007f94 g     F .text	00000004 __sinit_lock_acquire



Disassembly of section .entry:

04000000 <__reset>:
 * Jump to the _start entry point in the .text section if reset code
 * is allowed or if optimizing for RTL simulation.
 */
#if defined(ALT_ALLOW_CODE_AT_RESET) || defined(ALT_SIM_OPTIMIZE)
    /* Jump to the _start entry point in the .text section. */
    movhi r1, %hi(_start)
 4000000:	00410034 	movhi	at,1024
    ori r1, r1, %lo(_start)
 4000004:	0840d914 	ori	at,at,868
    jmp r1
 4000008:	0800683a 	jmp	at
	...

Disassembly of section .exceptions:

04000020 <alt_exception>:
# Entry point for exceptions.
.section .exceptions.entry.user, "xa"

# Save the entire context of a task.
save_context:
	addi	sp,	sp, -116		# Create space on the stack.
 4000020:	deffe304 	addi	sp,sp,-116
	stw		ra, 0(sp)
 4000024:	dfc00015 	stw	ra,0(sp)
								# Leave a gap for muldiv 0
	stw		at, 8(sp)
 4000028:	d8400215 	stw	at,8(sp)
	stw		r2, 12(sp)
 400002c:	d8800315 	stw	r2,12(sp)
	stw		r3, 16(sp)
 4000030:	d8c00415 	stw	r3,16(sp)
	stw		r4, 20(sp)
 4000034:	d9000515 	stw	r4,20(sp)
	stw		r5, 24(sp)
 4000038:	d9400615 	stw	r5,24(sp)
	stw		r6, 28(sp)
 400003c:	d9800715 	stw	r6,28(sp)
	stw		r7, 32(sp)
 4000040:	d9c00815 	stw	r7,32(sp)
	stw		r8, 36(sp)
 4000044:	da000915 	stw	r8,36(sp)
	stw		r9, 40(sp)
 4000048:	da400a15 	stw	r9,40(sp)
	stw		r10, 44(sp)
 400004c:	da800b15 	stw	r10,44(sp)
	stw		r11, 48(sp)
 4000050:	dac00c15 	stw	r11,48(sp)
	stw		r12, 52(sp)
 4000054:	db000d15 	stw	r12,52(sp)
	stw		r13, 56(sp)
 4000058:	db400e15 	stw	r13,56(sp)
	stw		r14, 60(sp)
 400005c:	db800f15 	stw	r14,60(sp)
	stw		r15, 64(sp)
 4000060:	dbc01015 	stw	r15,64(sp)
	rdctl	r5, estatus 		# Save the eStatus
 4000064:	000b307a 	rdctl	r5,estatus
	stw		r5, 68(sp)
 4000068:	d9401115 	stw	r5,68(sp)
	addi	r15, ea, -4			# Instruction that caused exception
 400006c:	ebffff04 	addi	r15,ea,-4
	stw		r15, 72(sp)			# Save as EA
 4000070:	dbc01215 	stw	r15,72(sp)
	stw		r16, 76(sp)			# Save the remaining registers
 4000074:	dc001315 	stw	r16,76(sp)
	stw		r17, 80(sp)
 4000078:	dc401415 	stw	r17,80(sp)
	stw		r18, 84(sp)
 400007c:	dc801515 	stw	r18,84(sp)
	stw		r19, 88(sp)
 4000080:	dcc01615 	stw	r19,88(sp)
	stw		r20, 92(sp)
 4000084:	dd001715 	stw	r20,92(sp)
	stw		r21, 96(sp)
 4000088:	dd401815 	stw	r21,96(sp)
	stw		r22, 100(sp)
 400008c:	dd801915 	stw	r22,100(sp)
	stw		r23, 104(sp)
 4000090:	ddc01a15 	stw	r23,104(sp)
	stw		gp, 108(sp)
 4000094:	de801b15 	stw	gp,108(sp)
	stw		fp, 112(sp)
 4000098:	df001c15 	stw	fp,112(sp)

0400009c <save_sp_to_pxCurrentTCB>:
 400009c:	06010074 	movhi	et,1025

save_sp_to_pxCurrentTCB:
	movia	et, pxCurrentTCB	# Load the address of the pxCurrentTCB pointer
 40000a0:	c6005904 	addi	et,et,356
	ldw		et, (et)			# Load the value of the pxCurrentTCB pointer
 40000a4:	c6000017 	ldw	et,0(et)
	stw		sp, (et)			# Store the stack pointer into the top of the TCB
 40000a8:	c6c00015 	stw	sp,0(et)

	br		irq_test_user		# skip the section .exceptions.entry
 40000ac:	00001506 	br	4000104 <irq_test_user>

#else /* ALT_EXCEPTION_STACK disabled */
        /* 
         * Reserve space on normal stack for registers about to be pushed.
         */
        addi  sp, sp, -76
 40000b0:	deffed04 	addi	sp,sp,-76
         * documentation for details).
         *
         * Leave a gap in the stack frame at 4(sp) for the muldiv handler to
         * store zero into.
         */
        stw   ra,  0(sp)
 40000b4:	dfc00015 	stw	ra,0(sp)
        stw   r1,   8(sp)
 40000b8:	d8400215 	stw	at,8(sp)
        stw   r2,  12(sp)
 40000bc:	d8800315 	stw	r2,12(sp)
        stw   r3,  16(sp)
 40000c0:	d8c00415 	stw	r3,16(sp)
        stw   r4,  20(sp)
 40000c4:	d9000515 	stw	r4,20(sp)
        stw   r5,  24(sp)
 40000c8:	d9400615 	stw	r5,24(sp)
        stw   r6,  28(sp)
 40000cc:	d9800715 	stw	r6,28(sp)
        stw   r7,  32(sp)
 40000d0:	d9c00815 	stw	r7,32(sp)
        rdctl r5, estatus   /* Read early to avoid usage stall */
 40000d4:	000b307a 	rdctl	r5,estatus
        stw   r8,  36(sp)
 40000d8:	da000915 	stw	r8,36(sp)
        stw   r9,  40(sp)
 40000dc:	da400a15 	stw	r9,40(sp)
        stw   r10, 44(sp)
 40000e0:	da800b15 	stw	r10,44(sp)
        stw   r11, 48(sp)
 40000e4:	dac00c15 	stw	r11,48(sp)
        stw   r12, 52(sp)
 40000e8:	db000d15 	stw	r12,52(sp)
        stw   r13, 56(sp)
 40000ec:	db400e15 	stw	r13,56(sp)
        stw   r14, 60(sp)
 40000f0:	db800f15 	stw	r14,60(sp)
        stw   r15, 64(sp)
 40000f4:	dbc01015 	stw	r15,64(sp)
        /*
         * ea-4 contains the address of the instruction being executed
         * when the exception occured. For interrupt exceptions, we will
         * will be re-issue the isntruction. Store it in 72(sp)
         */
        stw   r5,  68(sp)  /* estatus */
 40000f8:	d9401115 	stw	r5,68(sp)
        addi  r15, ea, -4  /* instruction that caused exception */
 40000fc:	ebffff04 	addi	r15,ea,-4
        stw   r15,  72(sp)
 4000100:	dbc01215 	stw	r15,72(sp)

04000104 <irq_test_user>:
#else
        /*
         * Test to see if the exception was a software exception or caused 
         * by an external interrupt, and vector accordingly.
         */
        rdctl r4, ipending
 4000104:	0009313a 	rdctl	r4,ipending
        andi  r2, r5, 1
 4000108:	2880004c 	andi	r2,r5,1
        beq   r2, zero, .Lnot_irq
 400010c:	10000326 	beq	r2,zero,400011c <irq_test_user+0x18>
        beq   r4, zero, .Lnot_irq
 4000110:	20000226 	beq	r4,zero,400011c <irq_test_user+0x18>
        /*
         * Now that all necessary registers have been preserved, call 
         * alt_irq_handler() to process the interrupts.
         */

        call alt_irq_handler
 4000114:	400023c0 	call	400023c <alt_irq_handler>

        .section .exceptions.irqreturn, "xa"

        br    .Lexception_exit
 4000118:	00001006 	br	400015c <restore_sp_from_pxCurrentTCB>
         * upon completion, so we write ea (address of instruction *after*
         * the one where the exception occured) into 72(sp). The actual
         * instruction that caused the exception is written in r2, which these
         * handlers will utilize.
         */
        stw ea, 72(sp) /* EA is PC+4 so will skip over instruction causing exception */
 400011c:	df401215 	stw	ea,72(sp)
.Lunknown_16bit:
        addi.n r4, r4, 2 /* Need PC+2 to skip over instruction causing exception */
        stw r4, 72(sp)

#else /* CDX is not Enabled and all instructions are 32bits */
        ldw r2, -4(ea) /* Instruction value that caused exception */
 4000120:	e8bfff17 	ldw	r2,-4(ea)

04000124 <soft_exceptions>:

	eret					# Return to address ea, loading eStatus into Status.

	.section .exceptions.soft, "xa"
soft_exceptions:
	movhi	r3, 0x003b				/* upper half of trap opcode */
 4000124:	00c00ef4 	movhi	r3,59
	ori		r3, r3, 0x683a			/* lower half of trap opcode */
 4000128:	18da0e94 	ori	r3,r3,26682
	beq		r2, r3, call_scheduler
 400012c:	10c00126 	beq	r2,r3,4000134 <call_scheduler>
	br		exceptions_unknown_user			# its something else
 4000130:	00000506 	br	4000148 <exceptions_unknown_user>

04000134 <call_scheduler>:

call_scheduler:
	stw		ea, 72(sp)						# EA is PC+4 so will skip over instruction causing exception
 4000134:	df401215 	stw	ea,72(sp)
 4000138:	03c10034 	movhi	r15,1024
	movia	r15, vTaskSwitchContext			# Pick the next context - use long call version in place of "call"
 400013c:	7bd38c04 	addi	r15,r15,20016
	callr	r15
 4000140:	783ee83a 	callr	r15
	br		restore_sp_from_pxCurrentTCB	# Switch in the task context and restore.
 4000144:	00000506 	br	400015c <restore_sp_from_pxCurrentTCB>

04000148 <exceptions_unknown_user>:
 4000148:	e93fff04 	addi	r4,ea,-4
 400014c:	40003040 	call	4000304 <alt_instruction_exception_entry>
 4000150:	1000021e 	bne	r2,zero,400015c <restore_sp_from_pxCurrentTCB>
 4000154:	ebffff04 	addi	r15,ea,-4
 4000158:	dbc01215 	stw	r15,72(sp)

0400015c <restore_sp_from_pxCurrentTCB>:
 400015c:	06010074 	movhi	et,1025
	movia	et, pxCurrentTCB		# Load the address of the pxCurrentTCB pointer
 4000160:	c6005904 	addi	et,et,356
	ldw		et, (et)				# Load the value of the pxCurrentTCB pointer
 4000164:	c6000017 	ldw	et,0(et)
	ldw		sp, (et)				# Load the stack pointer with the top value of the TCB
 4000168:	c6c00017 	ldw	sp,0(et)

0400016c <restore_context>:
	ldw		ra, 0(sp)		# Restore the registers.
 400016c:	dfc00017 	ldw	ra,0(sp)
	ldw		at, 8(sp)
 4000170:	d8400217 	ldw	at,8(sp)
	ldw		r2, 12(sp)
 4000174:	d8800317 	ldw	r2,12(sp)
	ldw		r3, 16(sp)
 4000178:	d8c00417 	ldw	r3,16(sp)
	ldw		r4, 20(sp)
 400017c:	d9000517 	ldw	r4,20(sp)
	ldw		r5, 24(sp)
 4000180:	d9400617 	ldw	r5,24(sp)
	ldw		r6, 28(sp)
 4000184:	d9800717 	ldw	r6,28(sp)
	ldw		r7, 32(sp)
 4000188:	d9c00817 	ldw	r7,32(sp)
	ldw		r8, 36(sp)
 400018c:	da000917 	ldw	r8,36(sp)
	ldw		r9, 40(sp)
 4000190:	da400a17 	ldw	r9,40(sp)
	ldw		r10, 44(sp)
 4000194:	da800b17 	ldw	r10,44(sp)
	ldw		r11, 48(sp)
 4000198:	dac00c17 	ldw	r11,48(sp)
	ldw		r12, 52(sp)
 400019c:	db000d17 	ldw	r12,52(sp)
	ldw		r13, 56(sp)
 40001a0:	db400e17 	ldw	r13,56(sp)
	ldw		r14, 60(sp)
 40001a4:	db800f17 	ldw	r14,60(sp)
	ldw		r15, 64(sp)
 40001a8:	dbc01017 	ldw	r15,64(sp)
	ldw		et, 68(sp)		# Load the eStatus
 40001ac:	de001117 	ldw	et,68(sp)
	wrctl	estatus, et 	# Write the eStatus
 40001b0:	c001707a 	wrctl	estatus,et
	ldw		ea, 72(sp)		# Load the Program Counter
 40001b4:	df401217 	ldw	ea,72(sp)
	ldw		r16, 76(sp)
 40001b8:	dc001317 	ldw	r16,76(sp)
	ldw		r17, 80(sp)
 40001bc:	dc401417 	ldw	r17,80(sp)
	ldw		r18, 84(sp)
 40001c0:	dc801517 	ldw	r18,84(sp)
	ldw		r19, 88(sp)
 40001c4:	dcc01617 	ldw	r19,88(sp)
	ldw		r20, 92(sp)
 40001c8:	dd001717 	ldw	r20,92(sp)
	ldw		r21, 96(sp)
 40001cc:	dd401817 	ldw	r21,96(sp)
	ldw		r22, 100(sp)
 40001d0:	dd801917 	ldw	r22,100(sp)
	ldw		r23, 104(sp)
 40001d4:	ddc01a17 	ldw	r23,104(sp)
	ldw		gp, 108(sp)
 40001d8:	de801b17 	ldw	gp,108(sp)
	ldw		fp, 112(sp)
 40001dc:	df001c17 	ldw	fp,112(sp)
	addi	sp,	sp, 116		# Release stack space
 40001e0:	dec01d04 	addi	sp,sp,116
	eret					# Return to address ea, loading eStatus into Status.
 40001e4:	ef80083a 	eret
        /* 
         * Restore the saved registers, so that all general purpose registers 
         * have been restored to their state at the time the interrupt occured.
         */

        ldw   r5,  68(sp)
 40001e8:	d9401117 	ldw	r5,68(sp)
        ldw   ea,  72(sp)  /* This becomes the PC once eret is executed */
 40001ec:	df401217 	ldw	ea,72(sp)
        ldw   ra,   0(sp)
 40001f0:	dfc00017 	ldw	ra,0(sp)

        wrctl estatus, r5
 40001f4:	2801707a 	wrctl	estatus,r5

        ldw   r1,   8(sp)
 40001f8:	d8400217 	ldw	at,8(sp)
        ldw   r2,  12(sp)
 40001fc:	d8800317 	ldw	r2,12(sp)
        ldw   r3,  16(sp)
 4000200:	d8c00417 	ldw	r3,16(sp)
        ldw   r4,  20(sp)
 4000204:	d9000517 	ldw	r4,20(sp)
        ldw   r5,  24(sp)
 4000208:	d9400617 	ldw	r5,24(sp)
        ldw   r6,  28(sp)
 400020c:	d9800717 	ldw	r6,28(sp)
        ldw   r7,  32(sp)
 4000210:	d9c00817 	ldw	r7,32(sp)

#if defined(ALT_EXCEPTION_STACK) && defined(ALT_STACK_CHECK)
        ldw   et, %gprel(alt_exception_old_stack_limit)(gp)
#endif

        ldw   r8,  36(sp)
 4000214:	da000917 	ldw	r8,36(sp)
        ldw   r9,  40(sp)
 4000218:	da400a17 	ldw	r9,40(sp)
        ldw   r10, 44(sp)
 400021c:	da800b17 	ldw	r10,44(sp)
        ldw   r11, 48(sp)
 4000220:	dac00c17 	ldw	r11,48(sp)
        ldw   r12, 52(sp)
 4000224:	db000d17 	ldw	r12,52(sp)
        ldw   r13, 56(sp)
 4000228:	db400e17 	ldw	r13,56(sp)
        ldw   r14, 60(sp)
 400022c:	db800f17 	ldw	r14,60(sp)
        ldw   r15, 64(sp)
 4000230:	dbc01017 	ldw	r15,64(sp)
        stw   et, %gprel(alt_stack_limit_value)(gp)
        stw   zero, %gprel(alt_exception_old_stack_limit)(gp)
#endif /* ALT_STACK_CHECK */
        ldw   sp,  76(sp)
#else /* ALT_EXCEPTION_STACK disabled */
        addi  sp, sp, 76
 4000234:	dec01304 	addi	sp,sp,76

        /*
         * Return to the interrupted instruction.
         */

        eret
 4000238:	ef80083a 	eret

0400023c <alt_irq_handler>:
 * instruction is present if the macro ALT_CI_INTERRUPT_VECTOR defined.
 */

void alt_irq_handler (void) __attribute__ ((section (".exceptions")));
void alt_irq_handler (void)
{
 400023c:	defff904 	addi	sp,sp,-28
 4000240:	dfc00615 	stw	ra,24(sp)
 4000244:	df000515 	stw	fp,20(sp)
 4000248:	df000504 	addi	fp,sp,20
  
  /*
   * Notify the operating system that we are at interrupt level.
   */ 
  
  ALT_OS_INT_ENTER();
 400024c:	0001883a 	nop
#ifndef NIOS2_EIC_PRESENT
static ALT_INLINE alt_u32 ALT_ALWAYS_INLINE alt_irq_pending (void)
{
  alt_u32 active;

  NIOS2_READ_IPENDING (active);
 4000250:	0005313a 	rdctl	r2,ipending
 4000254:	e0bffc15 	stw	r2,-16(fp)

  return active;
 4000258:	e0bffc17 	ldw	r2,-16(fp)
   * Consider the case where the high priority interupt is asserted during
   * the interrupt entry sequence for a lower priority interrupt to see why
   * this is the case.
   */

  active = alt_irq_pending ();
 400025c:	e0bfff15 	stw	r2,-4(fp)

  do
  {
    i = 0;
 4000260:	e03ffd15 	stw	zero,-12(fp)
    mask = 1;
 4000264:	00800044 	movi	r2,1
 4000268:	e0bffe15 	stw	r2,-8(fp)
     * called to clear the interrupt condition.
     */

    do
    {
      if (active & mask)
 400026c:	e0ffff17 	ldw	r3,-4(fp)
 4000270:	e0bffe17 	ldw	r2,-8(fp)
 4000274:	1884703a 	and	r2,r3,r2
 4000278:	10001126 	beq	r2,zero,40002c0 <alt_irq_handler+0x84>
      { 
#ifdef ALT_ENHANCED_INTERRUPT_API_PRESENT
        alt_irq[i].handler(alt_irq[i].context); 
 400027c:	e0bffd17 	ldw	r2,-12(fp)
 4000280:	100690fa 	slli	r3,r2,3
 4000284:	00812074 	movhi	r2,1153
 4000288:	1885883a 	add	r2,r3,r2
 400028c:	10c0b217 	ldw	r3,712(r2)
 4000290:	e0bffd17 	ldw	r2,-12(fp)
 4000294:	100890fa 	slli	r4,r2,3
 4000298:	00812074 	movhi	r2,1153
 400029c:	2085883a 	add	r2,r4,r2
 40002a0:	1080b317 	ldw	r2,716(r2)
 40002a4:	1009883a 	mov	r4,r2
 40002a8:	183ee83a 	callr	r3
#else
        alt_irq[i].handler(alt_irq[i].context, i); 
#endif
        break;
 40002ac:	0001883a 	nop
  NIOS2_READ_IPENDING (active);
 40002b0:	0005313a 	rdctl	r2,ipending
 40002b4:	e0bffb15 	stw	r2,-20(fp)
  return active;
 40002b8:	e0bffb17 	ldw	r2,-20(fp)
 40002bc:	00000706 	br	40002dc <alt_irq_handler+0xa0>
      }
      mask <<= 1;
 40002c0:	e0bffe17 	ldw	r2,-8(fp)
 40002c4:	1085883a 	add	r2,r2,r2
 40002c8:	e0bffe15 	stw	r2,-8(fp)
      i++;
 40002cc:	e0bffd17 	ldw	r2,-12(fp)
 40002d0:	10800044 	addi	r2,r2,1
 40002d4:	e0bffd15 	stw	r2,-12(fp)
      if (active & mask)
 40002d8:	003fe406 	br	400026c <alt_irq_handler+0x30>

    } while (1);

    active = alt_irq_pending ();
 40002dc:	e0bfff15 	stw	r2,-4(fp)
    
  } while (active);
 40002e0:	e0bfff17 	ldw	r2,-4(fp)
 40002e4:	103fde1e 	bne	r2,zero,4000260 <alt_irq_handler+0x24>

  /*
   * Notify the operating system that interrupt processing is complete.
   */ 

  ALT_OS_INT_EXIT();
 40002e8:	0001883a 	nop
}
 40002ec:	0001883a 	nop
 40002f0:	e037883a 	mov	sp,fp
 40002f4:	dfc00117 	ldw	ra,4(sp)
 40002f8:	df000017 	ldw	fp,0(sp)
 40002fc:	dec00204 	addi	sp,sp,8
 4000300:	f800283a 	ret

04000304 <alt_instruction_exception_entry>:
 * that handler if it has been registered. Absent a handler, it will
 * break break or hang as discussed below.
 */
int 
alt_instruction_exception_entry (alt_u32 exception_pc)
{
 4000304:	defffb04 	addi	sp,sp,-20
 4000308:	dfc00415 	stw	ra,16(sp)
 400030c:	df000315 	stw	fp,12(sp)
 4000310:	df000304 	addi	fp,sp,12
 4000314:	e13ffd15 	stw	r4,-12(fp)
  cause = ( (cause & NIOS2_EXCEPTION_REG_CAUSE_MASK) >>
              NIOS2_EXCEPTION_REG_CAUSE_OFST );

  NIOS2_READ_BADADDR(badaddr);
#else
  cause = NIOS2_EXCEPTION_CAUSE_NOT_PRESENT;
 4000318:	00bfffc4 	movi	r2,-1
 400031c:	e0bfff15 	stw	r2,-4(fp)
  badaddr = 0;
 4000320:	e03ffe15 	stw	zero,-8(fp)
#endif /* NIOS2_HAS_EXTRA_EXCEPTION_INFO */

  if(alt_instruction_exception_handler) {
 4000324:	d0a6c617 	ldw	r2,-25832(gp)
 4000328:	10000726 	beq	r2,zero,4000348 <alt_instruction_exception_entry+0x44>
     * Call handler. Its return value indicates whether the exception-causing
     * instruction should be re-issued. The code that called us,
     * alt_eceptions_entry.S, will look at this value and adjust the ea
     * register as necessary
     */
    return alt_instruction_exception_handler(cause, exception_pc, badaddr);
 400032c:	d0a6c617 	ldw	r2,-25832(gp)
 4000330:	e0ffff17 	ldw	r3,-4(fp)
 4000334:	e1bffe17 	ldw	r6,-8(fp)
 4000338:	e17ffd17 	ldw	r5,-12(fp)
 400033c:	1809883a 	mov	r4,r3
 4000340:	103ee83a 	callr	r2
 4000344:	00000206 	br	4000350 <alt_instruction_exception_entry+0x4c>
   *    (a peripheral which negates its interrupt output before its
   *    interrupt handler has been executed will cause spurious interrupts)
   */
  else {
#ifdef NIOS2_HAS_DEBUG_STUB
    NIOS2_BREAK();
 4000348:	003da03a 	break	0
      ;
#endif /* NIOS2_HAS_DEBUG_STUB */
  }

  /* We should not get here. Remove compiler warning. */
  return NIOS2_EXCEPTION_RETURN_REISSUE_INST;
 400034c:	0005883a 	mov	r2,zero
}
 4000350:	e037883a 	mov	sp,fp
 4000354:	dfc00117 	ldw	ra,4(sp)
 4000358:	df000017 	ldw	fp,0(sp)
 400035c:	dec00204 	addi	sp,sp,8
 4000360:	f800283a 	ret

Disassembly of section .text:

04000364 <_start>:

    /*
     * Now that the caches are initialized, set up the stack pointer and global pointer.
     * The values provided by the linker are assumed to be correctly aligned.
     */
    movhi sp, %hi(__alt_stack_pointer)
 4000364:	06c20034 	movhi	sp,2048
    ori sp, sp, %lo(__alt_stack_pointer)
 4000368:	dec00014 	ori	sp,sp,0
    movhi gp, %hi(_gp)
 400036c:	06810074 	movhi	gp,1025
    ori gp, gp, %lo(_gp)
 4000370:	d699ac14 	ori	gp,gp,26288
 */
#ifndef ALT_SIM_OPTIMIZE
    /* Log that the BSS is about to be cleared. */
    ALT_LOG_PUTS(alt_log_msg_bss)

    movhi r2, %hi(__bss_start)
 4000374:	00810074 	movhi	r2,1025
    ori r2, r2, %lo(__bss_start)
 4000378:	10805714 	ori	r2,r2,348

    movhi r3, %hi(__bss_end)
 400037c:	00c12074 	movhi	r3,1153
    ori r3, r3, %lo(__bss_end)
 4000380:	18c0f214 	ori	r3,r3,968

    beq r2, r3, 1f
 4000384:	10c00326 	beq	r2,r3,4000394 <_start+0x30>

0:
    stw zero, (r2)
 4000388:	10000015 	stw	zero,0(r2)
    addi r2, r2, 4
 400038c:	10800104 	addi	r2,r2,4
    bltu r2, r3, 0b
 4000390:	10fffd36 	bltu	r2,r3,4000388 <_start+0x24>
     * section aren't defined until alt_load() has been called).
     */
    mov   et, zero
#endif

    call alt_load
 4000394:	400ab0c0 	call	400ab0c <alt_load>

    /* Log that alt_main is about to be called. */
    ALT_LOG_PUTS(alt_log_msg_alt_main)

    /* Call the C entry point. It should never return. */
    call alt_main
 4000398:	400acac0 	call	400acac <alt_main>

0400039c <alt_after_alt_main>:

    /* Wait in infinite loop in case alt_main does return. */
alt_after_alt_main:
    br alt_after_alt_main
 400039c:	003fff06 	br	400039c <alt_after_alt_main>

040003a0 <xEventGroupCreate>:
/*-----------------------------------------------------------*/

#if ( configSUPPORT_DYNAMIC_ALLOCATION == 1 )

    EventGroupHandle_t xEventGroupCreate( void )
    {
 40003a0:	defffd04 	addi	sp,sp,-12
 40003a4:	dfc00215 	stw	ra,8(sp)
 40003a8:	df000115 	stw	fp,4(sp)
 40003ac:	df000104 	addi	fp,sp,4
         * TickType_t alignment requirements the cast is safe.  In other cases,
         * where the natural word size of the architecture is less than
         * sizeof( TickType_t ), the TickType_t variables will be accessed in two
         * or more reads operations, and the alignment requirements is only that
         * of each individual read. */
        pxEventBits = ( EventGroup_t * ) pvPortMalloc( sizeof( EventGroup_t ) ); /*lint !e9087 !e9079 see comment above. */
 40003b0:	01000604 	movi	r4,24
 40003b4:	400103c0 	call	400103c <pvPortMalloc>
 40003b8:	e0bfff15 	stw	r2,-4(fp)

        if( pxEventBits != NULL )
 40003bc:	e0bfff17 	ldw	r2,-4(fp)
 40003c0:	10000626 	beq	r2,zero,40003dc <xEventGroupCreate+0x3c>
        {
            pxEventBits->uxEventBits = 0;
 40003c4:	e0bfff17 	ldw	r2,-4(fp)
 40003c8:	10000015 	stw	zero,0(r2)
            vListInitialise( &( pxEventBits->xTasksWaitingForBits ) );
 40003cc:	e0bfff17 	ldw	r2,-4(fp)
 40003d0:	10800104 	addi	r2,r2,4
 40003d4:	1009883a 	mov	r4,r2
 40003d8:	4000aa00 	call	4000aa0 <vListInitialise>
        else
        {
            traceEVENT_GROUP_CREATE_FAILED(); /*lint !e9063 Else branch only exists to allow tracing and does not generate code if trace macros are not defined. */
        }

        return pxEventBits;
 40003dc:	e0bfff17 	ldw	r2,-4(fp)
    }
 40003e0:	e037883a 	mov	sp,fp
 40003e4:	dfc00117 	ldw	ra,4(sp)
 40003e8:	df000017 	ldw	fp,0(sp)
 40003ec:	dec00204 	addi	sp,sp,8
 40003f0:	f800283a 	ret

040003f4 <xEventGroupSync>:

EventBits_t xEventGroupSync( EventGroupHandle_t xEventGroup,
                             const EventBits_t uxBitsToSet,
                             const EventBits_t uxBitsToWaitFor,
                             TickType_t xTicksToWait )
{
 40003f4:	defff504 	addi	sp,sp,-44
 40003f8:	dfc00a15 	stw	ra,40(sp)
 40003fc:	df000915 	stw	fp,36(sp)
 4000400:	df000904 	addi	fp,sp,36
 4000404:	e13ffa15 	stw	r4,-24(fp)
 4000408:	e17ff915 	stw	r5,-28(fp)
 400040c:	e1bff815 	stw	r6,-32(fp)
 4000410:	e1fff715 	stw	r7,-36(fp)
    EventBits_t uxOriginalBitValue, uxReturn;
    EventGroup_t * pxEventBits = xEventGroup;
 4000414:	e0bffa17 	ldw	r2,-24(fp)
 4000418:	e0bffe15 	stw	r2,-8(fp)
    BaseType_t xAlreadyYielded;
    BaseType_t xTimeoutOccurred = pdFALSE;
 400041c:	e03ffd15 	stw	zero,-12(fp)
    {
        configASSERT( !( ( xTaskGetSchedulerState() == taskSCHEDULER_SUSPENDED ) && ( xTicksToWait != 0 ) ) );
    }
    #endif

    vTaskSuspendAll();
 4000420:	40046f00 	call	40046f0 <vTaskSuspendAll>
    {
        uxOriginalBitValue = pxEventBits->uxEventBits;
 4000424:	e0bffe17 	ldw	r2,-8(fp)
 4000428:	10800017 	ldw	r2,0(r2)
 400042c:	e0bffc15 	stw	r2,-16(fp)

        ( void ) xEventGroupSetBits( xEventGroup, uxBitsToSet );
 4000430:	e17ff917 	ldw	r5,-28(fp)
 4000434:	e13ffa17 	ldw	r4,-24(fp)
 4000438:	40007c40 	call	40007c4 <xEventGroupSetBits>

        if( ( ( uxOriginalBitValue | uxBitsToSet ) & uxBitsToWaitFor ) == uxBitsToWaitFor )
 400043c:	e0fffc17 	ldw	r3,-16(fp)
 4000440:	e0bff917 	ldw	r2,-28(fp)
 4000444:	1886b03a 	or	r3,r3,r2
 4000448:	e0bff817 	ldw	r2,-32(fp)
 400044c:	1884703a 	and	r2,r3,r2
 4000450:	e0fff817 	ldw	r3,-32(fp)
 4000454:	18800d1e 	bne	r3,r2,400048c <xEventGroupSync+0x98>
        {
            /* All the rendezvous bits are now set - no need to block. */
            uxReturn = ( uxOriginalBitValue | uxBitsToSet );
 4000458:	e0fffc17 	ldw	r3,-16(fp)
 400045c:	e0bff917 	ldw	r2,-28(fp)
 4000460:	1884b03a 	or	r2,r3,r2
 4000464:	e0bfff15 	stw	r2,-4(fp)

            /* Rendezvous always clear the bits.  They will have been cleared
             * already unless this is the only task in the rendezvous. */
            pxEventBits->uxEventBits &= ~uxBitsToWaitFor;
 4000468:	e0bffe17 	ldw	r2,-8(fp)
 400046c:	10c00017 	ldw	r3,0(r2)
 4000470:	e0bff817 	ldw	r2,-32(fp)
 4000474:	0084303a 	nor	r2,zero,r2
 4000478:	1886703a 	and	r3,r3,r2
 400047c:	e0bffe17 	ldw	r2,-8(fp)
 4000480:	10c00015 	stw	r3,0(r2)

            xTicksToWait = 0;
 4000484:	e03ff715 	stw	zero,-36(fp)
 4000488:	00001106 	br	40004d0 <xEventGroupSync+0xdc>
        }
        else
        {
            if( xTicksToWait != ( TickType_t ) 0 )
 400048c:	e0bff717 	ldw	r2,-36(fp)
 4000490:	10000a26 	beq	r2,zero,40004bc <xEventGroupSync+0xc8>
                traceEVENT_GROUP_SYNC_BLOCK( xEventGroup, uxBitsToSet, uxBitsToWaitFor );

                /* Store the bits that the calling task is waiting for in the
                 * task's event list item so the kernel knows when a match is
                 * found.  Then enter the blocked state. */
                vTaskPlaceOnUnorderedEventList( &( pxEventBits->xTasksWaitingForBits ), ( uxBitsToWaitFor | eventCLEAR_EVENTS_ON_EXIT_BIT | eventWAIT_FOR_ALL_BITS ), xTicksToWait );
 4000494:	e0bffe17 	ldw	r2,-8(fp)
 4000498:	10c00104 	addi	r3,r2,4
 400049c:	e0bff817 	ldw	r2,-32(fp)
 40004a0:	10814034 	orhi	r2,r2,1280
 40004a4:	e1bff717 	ldw	r6,-36(fp)
 40004a8:	100b883a 	mov	r5,r2
 40004ac:	1809883a 	mov	r4,r3
 40004b0:	4004f700 	call	4004f70 <vTaskPlaceOnUnorderedEventList>

                /* This assignment is obsolete as uxReturn will get set after
                 * the task unblocks, but some compilers mistakenly generate a
                 * warning about uxReturn being returned without being set if the
                 * assignment is omitted. */
                uxReturn = 0;
 40004b4:	e03fff15 	stw	zero,-4(fp)
 40004b8:	00000506 	br	40004d0 <xEventGroupSync+0xdc>
            }
            else
            {
                /* The rendezvous bits were not set, but no block time was
                 * specified - just return the current event bit value. */
                uxReturn = pxEventBits->uxEventBits;
 40004bc:	e0bffe17 	ldw	r2,-8(fp)
 40004c0:	10800017 	ldw	r2,0(r2)
 40004c4:	e0bfff15 	stw	r2,-4(fp)
                xTimeoutOccurred = pdTRUE;
 40004c8:	00800044 	movi	r2,1
 40004cc:	e0bffd15 	stw	r2,-12(fp)
            }
        }
    }
    xAlreadyYielded = xTaskResumeAll();
 40004d0:	400471c0 	call	400471c <xTaskResumeAll>
 40004d4:	e0bffb15 	stw	r2,-20(fp)

    if( xTicksToWait != ( TickType_t ) 0 )
 40004d8:	e0bff717 	ldw	r2,-36(fp)
 40004dc:	10002026 	beq	r2,zero,4000560 <xEventGroupSync+0x16c>
    {
        if( xAlreadyYielded == pdFALSE )
 40004e0:	e0bffb17 	ldw	r2,-20(fp)
 40004e4:	1000011e 	bne	r2,zero,40004ec <xEventGroupSync+0xf8>
        {
            portYIELD_WITHIN_API();
 40004e8:	003b683a 	trap	0

        /* The task blocked to wait for its required bits to be set - at this
         * point either the required bits were set or the block time expired.  If
         * the required bits were set they will have been stored in the task's
         * event list item, and they should now be retrieved then cleared. */
        uxReturn = uxTaskResetEventItemValue();
 40004ec:	40060340 	call	4006034 <uxTaskResetEventItemValue>
 40004f0:	e0bfff15 	stw	r2,-4(fp)

        if( ( uxReturn & eventUNBLOCKED_DUE_TO_BIT_SET ) == ( EventBits_t ) 0 )
 40004f4:	e0bfff17 	ldw	r2,-4(fp)
 40004f8:	1080802c 	andhi	r2,r2,512
 40004fc:	1000131e 	bne	r2,zero,400054c <xEventGroupSync+0x158>
        {
            /* The task timed out, just return the current event bit value. */
            taskENTER_CRITICAL();
 4000500:	4005f7c0 	call	4005f7c <vTaskEnterCritical>
            {
                uxReturn = pxEventBits->uxEventBits;
 4000504:	e0bffe17 	ldw	r2,-8(fp)
 4000508:	10800017 	ldw	r2,0(r2)
 400050c:	e0bfff15 	stw	r2,-4(fp)

                /* Although the task got here because it timed out before the
                 * bits it was waiting for were set, it is possible that since it
                 * unblocked another task has set the bits.  If this is the case
                 * then it needs to clear the bits before exiting. */
                if( ( uxReturn & uxBitsToWaitFor ) == uxBitsToWaitFor )
 4000510:	e0ffff17 	ldw	r3,-4(fp)
 4000514:	e0bff817 	ldw	r2,-32(fp)
 4000518:	1884703a 	and	r2,r3,r2
 400051c:	e0fff817 	ldw	r3,-32(fp)
 4000520:	1880071e 	bne	r3,r2,4000540 <xEventGroupSync+0x14c>
                {
                    pxEventBits->uxEventBits &= ~uxBitsToWaitFor;
 4000524:	e0bffe17 	ldw	r2,-8(fp)
 4000528:	10c00017 	ldw	r3,0(r2)
 400052c:	e0bff817 	ldw	r2,-32(fp)
 4000530:	0084303a 	nor	r2,zero,r2
 4000534:	1886703a 	and	r3,r3,r2
 4000538:	e0bffe17 	ldw	r2,-8(fp)
 400053c:	10c00015 	stw	r3,0(r2)
                else
                {
                    mtCOVERAGE_TEST_MARKER();
                }
            }
            taskEXIT_CRITICAL();
 4000540:	4005fd00 	call	4005fd0 <vTaskExitCritical>

            xTimeoutOccurred = pdTRUE;
 4000544:	00800044 	movi	r2,1
 4000548:	e0bffd15 	stw	r2,-12(fp)
            /* The task unblocked because the bits were set. */
        }

        /* Control bits might be set as the task had blocked should not be
         * returned. */
        uxReturn &= ~eventEVENT_BITS_CONTROL_BYTES;
 400054c:	e0ffff17 	ldw	r3,-4(fp)
 4000550:	00804034 	movhi	r2,256
 4000554:	10bfffc4 	addi	r2,r2,-1
 4000558:	1884703a 	and	r2,r3,r2
 400055c:	e0bfff15 	stw	r2,-4(fp)
    traceEVENT_GROUP_SYNC_END( xEventGroup, uxBitsToSet, uxBitsToWaitFor, xTimeoutOccurred );

    /* Prevent compiler warnings when trace macros are not used. */
    ( void ) xTimeoutOccurred;

    return uxReturn;
 4000560:	e0bfff17 	ldw	r2,-4(fp)
}
 4000564:	e037883a 	mov	sp,fp
 4000568:	dfc00117 	ldw	ra,4(sp)
 400056c:	df000017 	ldw	fp,0(sp)
 4000570:	dec00204 	addi	sp,sp,8
 4000574:	f800283a 	ret

04000578 <xEventGroupWaitBits>:
EventBits_t xEventGroupWaitBits( EventGroupHandle_t xEventGroup,
                                 const EventBits_t uxBitsToWaitFor,
                                 const BaseType_t xClearOnExit,
                                 const BaseType_t xWaitForAllBits,
                                 TickType_t xTicksToWait )
{
 4000578:	defff304 	addi	sp,sp,-52
 400057c:	dfc00c15 	stw	ra,48(sp)
 4000580:	df000b15 	stw	fp,44(sp)
 4000584:	df000b04 	addi	fp,sp,44
 4000588:	e13ff815 	stw	r4,-32(fp)
 400058c:	e17ff715 	stw	r5,-36(fp)
 4000590:	e1bff615 	stw	r6,-40(fp)
 4000594:	e1fff515 	stw	r7,-44(fp)
    EventGroup_t * pxEventBits = xEventGroup;
 4000598:	e0bff817 	ldw	r2,-32(fp)
 400059c:	e0bffd15 	stw	r2,-12(fp)
    EventBits_t uxReturn, uxControlBits = 0;
 40005a0:	e03ffe15 	stw	zero,-8(fp)
    BaseType_t xWaitConditionMet, xAlreadyYielded;
    BaseType_t xTimeoutOccurred = pdFALSE;
 40005a4:	e03ffc15 	stw	zero,-16(fp)
    {
        configASSERT( !( ( xTaskGetSchedulerState() == taskSCHEDULER_SUSPENDED ) && ( xTicksToWait != 0 ) ) );
    }
    #endif

    vTaskSuspendAll();
 40005a8:	40046f00 	call	40046f0 <vTaskSuspendAll>
    {
        const EventBits_t uxCurrentEventBits = pxEventBits->uxEventBits;
 40005ac:	e0bffd17 	ldw	r2,-12(fp)
 40005b0:	10800017 	ldw	r2,0(r2)
 40005b4:	e0bffb15 	stw	r2,-20(fp)

        /* Check to see if the wait condition is already met or not. */
        xWaitConditionMet = prvTestWaitCondition( uxCurrentEventBits, uxBitsToWaitFor, xWaitForAllBits );
 40005b8:	e1bff517 	ldw	r6,-44(fp)
 40005bc:	e17ff717 	ldw	r5,-36(fp)
 40005c0:	e13ffb17 	ldw	r4,-20(fp)
 40005c4:	4000a300 	call	4000a30 <prvTestWaitCondition>
 40005c8:	e0bffa15 	stw	r2,-24(fp)

        if( xWaitConditionMet != pdFALSE )
 40005cc:	e0bffa17 	ldw	r2,-24(fp)
 40005d0:	10000d26 	beq	r2,zero,4000608 <xEventGroupWaitBits+0x90>
        {
            /* The wait condition has already been met so there is no need to
             * block. */
            uxReturn = uxCurrentEventBits;
 40005d4:	e0bffb17 	ldw	r2,-20(fp)
 40005d8:	e0bfff15 	stw	r2,-4(fp)
            xTicksToWait = ( TickType_t ) 0;
 40005dc:	e0000215 	stw	zero,8(fp)

            /* Clear the wait bits if requested to do so. */
            if( xClearOnExit != pdFALSE )
 40005e0:	e0bff617 	ldw	r2,-40(fp)
 40005e4:	10002226 	beq	r2,zero,4000670 <xEventGroupWaitBits+0xf8>
            {
                pxEventBits->uxEventBits &= ~uxBitsToWaitFor;
 40005e8:	e0bffd17 	ldw	r2,-12(fp)
 40005ec:	10c00017 	ldw	r3,0(r2)
 40005f0:	e0bff717 	ldw	r2,-36(fp)
 40005f4:	0084303a 	nor	r2,zero,r2
 40005f8:	1886703a 	and	r3,r3,r2
 40005fc:	e0bffd17 	ldw	r2,-12(fp)
 4000600:	10c00015 	stw	r3,0(r2)
 4000604:	00001a06 	br	4000670 <xEventGroupWaitBits+0xf8>
            else
            {
                mtCOVERAGE_TEST_MARKER();
            }
        }
        else if( xTicksToWait == ( TickType_t ) 0 )
 4000608:	e0800217 	ldw	r2,8(fp)
 400060c:	1000051e 	bne	r2,zero,4000624 <xEventGroupWaitBits+0xac>
        {
            /* The wait condition has not been met, but no block time was
             * specified, so just return the current value. */
            uxReturn = uxCurrentEventBits;
 4000610:	e0bffb17 	ldw	r2,-20(fp)
 4000614:	e0bfff15 	stw	r2,-4(fp)
            xTimeoutOccurred = pdTRUE;
 4000618:	00800044 	movi	r2,1
 400061c:	e0bffc15 	stw	r2,-16(fp)
 4000620:	00001306 	br	4000670 <xEventGroupWaitBits+0xf8>
        {
            /* The task is going to block to wait for its required bits to be
             * set.  uxControlBits are used to remember the specified behaviour of
             * this call to xEventGroupWaitBits() - for use when the event bits
             * unblock the task. */
            if( xClearOnExit != pdFALSE )
 4000624:	e0bff617 	ldw	r2,-40(fp)
 4000628:	10000326 	beq	r2,zero,4000638 <xEventGroupWaitBits+0xc0>
            {
                uxControlBits |= eventCLEAR_EVENTS_ON_EXIT_BIT;
 400062c:	e0bffe17 	ldw	r2,-8(fp)
 4000630:	10804034 	orhi	r2,r2,256
 4000634:	e0bffe15 	stw	r2,-8(fp)
            else
            {
                mtCOVERAGE_TEST_MARKER();
            }

            if( xWaitForAllBits != pdFALSE )
 4000638:	e0bff517 	ldw	r2,-44(fp)
 400063c:	10000326 	beq	r2,zero,400064c <xEventGroupWaitBits+0xd4>
            {
                uxControlBits |= eventWAIT_FOR_ALL_BITS;
 4000640:	e0bffe17 	ldw	r2,-8(fp)
 4000644:	10810034 	orhi	r2,r2,1024
 4000648:	e0bffe15 	stw	r2,-8(fp)
            }

            /* Store the bits that the calling task is waiting for in the
             * task's event list item so the kernel knows when a match is
             * found.  Then enter the blocked state. */
            vTaskPlaceOnUnorderedEventList( &( pxEventBits->xTasksWaitingForBits ), ( uxBitsToWaitFor | uxControlBits ), xTicksToWait );
 400064c:	e0bffd17 	ldw	r2,-12(fp)
 4000650:	11000104 	addi	r4,r2,4
 4000654:	e0fff717 	ldw	r3,-36(fp)
 4000658:	e0bffe17 	ldw	r2,-8(fp)
 400065c:	1884b03a 	or	r2,r3,r2
 4000660:	e1800217 	ldw	r6,8(fp)
 4000664:	100b883a 	mov	r5,r2
 4000668:	4004f700 	call	4004f70 <vTaskPlaceOnUnorderedEventList>

            /* This is obsolete as it will get set after the task unblocks, but
             * some compilers mistakenly generate a warning about the variable
             * being returned without being set if it is not done. */
            uxReturn = 0;
 400066c:	e03fff15 	stw	zero,-4(fp)

            traceEVENT_GROUP_WAIT_BITS_BLOCK( xEventGroup, uxBitsToWaitFor );
        }
    }
    xAlreadyYielded = xTaskResumeAll();
 4000670:	400471c0 	call	400471c <xTaskResumeAll>
 4000674:	e0bff915 	stw	r2,-28(fp)

    if( xTicksToWait != ( TickType_t ) 0 )
 4000678:	e0800217 	ldw	r2,8(fp)
 400067c:	10002226 	beq	r2,zero,4000708 <xEventGroupWaitBits+0x190>
    {
        if( xAlreadyYielded == pdFALSE )
 4000680:	e0bff917 	ldw	r2,-28(fp)
 4000684:	1000011e 	bne	r2,zero,400068c <xEventGroupWaitBits+0x114>
        {
            portYIELD_WITHIN_API();
 4000688:	003b683a 	trap	0

        /* The task blocked to wait for its required bits to be set - at this
         * point either the required bits were set or the block time expired.  If
         * the required bits were set they will have been stored in the task's
         * event list item, and they should now be retrieved then cleared. */
        uxReturn = uxTaskResetEventItemValue();
 400068c:	40060340 	call	4006034 <uxTaskResetEventItemValue>
 4000690:	e0bfff15 	stw	r2,-4(fp)

        if( ( uxReturn & eventUNBLOCKED_DUE_TO_BIT_SET ) == ( EventBits_t ) 0 )
 4000694:	e0bfff17 	ldw	r2,-4(fp)
 4000698:	1080802c 	andhi	r2,r2,512
 400069c:	1000151e 	bne	r2,zero,40006f4 <xEventGroupWaitBits+0x17c>
        {
            taskENTER_CRITICAL();
 40006a0:	4005f7c0 	call	4005f7c <vTaskEnterCritical>
            {
                /* The task timed out, just return the current event bit value. */
                uxReturn = pxEventBits->uxEventBits;
 40006a4:	e0bffd17 	ldw	r2,-12(fp)
 40006a8:	10800017 	ldw	r2,0(r2)
 40006ac:	e0bfff15 	stw	r2,-4(fp)

                /* It is possible that the event bits were updated between this
                 * task leaving the Blocked state and running again. */
                if( prvTestWaitCondition( uxReturn, uxBitsToWaitFor, xWaitForAllBits ) != pdFALSE )
 40006b0:	e1bff517 	ldw	r6,-44(fp)
 40006b4:	e17ff717 	ldw	r5,-36(fp)
 40006b8:	e13fff17 	ldw	r4,-4(fp)
 40006bc:	4000a300 	call	4000a30 <prvTestWaitCondition>
 40006c0:	10000926 	beq	r2,zero,40006e8 <xEventGroupWaitBits+0x170>
                {
                    if( xClearOnExit != pdFALSE )
 40006c4:	e0bff617 	ldw	r2,-40(fp)
 40006c8:	10000726 	beq	r2,zero,40006e8 <xEventGroupWaitBits+0x170>
                    {
                        pxEventBits->uxEventBits &= ~uxBitsToWaitFor;
 40006cc:	e0bffd17 	ldw	r2,-12(fp)
 40006d0:	10c00017 	ldw	r3,0(r2)
 40006d4:	e0bff717 	ldw	r2,-36(fp)
 40006d8:	0084303a 	nor	r2,zero,r2
 40006dc:	1886703a 	and	r3,r3,r2
 40006e0:	e0bffd17 	ldw	r2,-12(fp)
 40006e4:	10c00015 	stw	r3,0(r2)
                else
                {
                    mtCOVERAGE_TEST_MARKER();
                }

                xTimeoutOccurred = pdTRUE;
 40006e8:	00800044 	movi	r2,1
 40006ec:	e0bffc15 	stw	r2,-16(fp)
            }
            taskEXIT_CRITICAL();
 40006f0:	4005fd00 	call	4005fd0 <vTaskExitCritical>
        {
            /* The task unblocked because the bits were set. */
        }

        /* The task blocked so control bits may have been set. */
        uxReturn &= ~eventEVENT_BITS_CONTROL_BYTES;
 40006f4:	e0ffff17 	ldw	r3,-4(fp)
 40006f8:	00804034 	movhi	r2,256
 40006fc:	10bfffc4 	addi	r2,r2,-1
 4000700:	1884703a 	and	r2,r3,r2
 4000704:	e0bfff15 	stw	r2,-4(fp)
    traceEVENT_GROUP_WAIT_BITS_END( xEventGroup, uxBitsToWaitFor, xTimeoutOccurred );

    /* Prevent compiler warnings when trace macros are not used. */
    ( void ) xTimeoutOccurred;

    return uxReturn;
 4000708:	e0bfff17 	ldw	r2,-4(fp)
}
 400070c:	e037883a 	mov	sp,fp
 4000710:	dfc00117 	ldw	ra,4(sp)
 4000714:	df000017 	ldw	fp,0(sp)
 4000718:	dec00204 	addi	sp,sp,8
 400071c:	f800283a 	ret

04000720 <xEventGroupClearBits>:
/*-----------------------------------------------------------*/

EventBits_t xEventGroupClearBits( EventGroupHandle_t xEventGroup,
                                  const EventBits_t uxBitsToClear )
{
 4000720:	defffa04 	addi	sp,sp,-24
 4000724:	dfc00515 	stw	ra,20(sp)
 4000728:	df000415 	stw	fp,16(sp)
 400072c:	df000404 	addi	fp,sp,16
 4000730:	e13ffd15 	stw	r4,-12(fp)
 4000734:	e17ffc15 	stw	r5,-16(fp)
    EventGroup_t * pxEventBits = xEventGroup;
 4000738:	e0bffd17 	ldw	r2,-12(fp)
 400073c:	e0bfff15 	stw	r2,-4(fp)
    /* Check the user is not attempting to clear the bits used by the kernel
     * itself. */
    configASSERT( xEventGroup );
    configASSERT( ( uxBitsToClear & eventEVENT_BITS_CONTROL_BYTES ) == 0 );

    taskENTER_CRITICAL();
 4000740:	4005f7c0 	call	4005f7c <vTaskEnterCritical>
    {
        traceEVENT_GROUP_CLEAR_BITS( xEventGroup, uxBitsToClear );

        /* The value returned is the event group value prior to the bits being
         * cleared. */
        uxReturn = pxEventBits->uxEventBits;
 4000744:	e0bfff17 	ldw	r2,-4(fp)
 4000748:	10800017 	ldw	r2,0(r2)
 400074c:	e0bffe15 	stw	r2,-8(fp)

        /* Clear the bits. */
        pxEventBits->uxEventBits &= ~uxBitsToClear;
 4000750:	e0bfff17 	ldw	r2,-4(fp)
 4000754:	10c00017 	ldw	r3,0(r2)
 4000758:	e0bffc17 	ldw	r2,-16(fp)
 400075c:	0084303a 	nor	r2,zero,r2
 4000760:	1886703a 	and	r3,r3,r2
 4000764:	e0bfff17 	ldw	r2,-4(fp)
 4000768:	10c00015 	stw	r3,0(r2)
    }
    taskEXIT_CRITICAL();
 400076c:	4005fd00 	call	4005fd0 <vTaskExitCritical>

    return uxReturn;
 4000770:	e0bffe17 	ldw	r2,-8(fp)
}
 4000774:	e037883a 	mov	sp,fp
 4000778:	dfc00117 	ldw	ra,4(sp)
 400077c:	df000017 	ldw	fp,0(sp)
 4000780:	dec00204 	addi	sp,sp,8
 4000784:	f800283a 	ret

04000788 <xEventGroupGetBitsFromISR>:

#endif /* if ( ( configUSE_TRACE_FACILITY == 1 ) && ( INCLUDE_xTimerPendFunctionCall == 1 ) && ( configUSE_TIMERS == 1 ) ) */
/*-----------------------------------------------------------*/

EventBits_t xEventGroupGetBitsFromISR( EventGroupHandle_t xEventGroup )
{
 4000788:	defffb04 	addi	sp,sp,-20
 400078c:	df000415 	stw	fp,16(sp)
 4000790:	df000404 	addi	fp,sp,16
 4000794:	e13ffc15 	stw	r4,-16(fp)
    UBaseType_t uxSavedInterruptStatus;
    EventGroup_t const * const pxEventBits = xEventGroup;
 4000798:	e0bffc17 	ldw	r2,-16(fp)
 400079c:	e0bfff15 	stw	r2,-4(fp)
    EventBits_t uxReturn;

    uxSavedInterruptStatus = portSET_INTERRUPT_MASK_FROM_ISR();
 40007a0:	e03ffe15 	stw	zero,-8(fp)
    {
        uxReturn = pxEventBits->uxEventBits;
 40007a4:	e0bfff17 	ldw	r2,-4(fp)
 40007a8:	10800017 	ldw	r2,0(r2)
 40007ac:	e0bffd15 	stw	r2,-12(fp)
    }
    portCLEAR_INTERRUPT_MASK_FROM_ISR( uxSavedInterruptStatus );

    return uxReturn;
 40007b0:	e0bffd17 	ldw	r2,-12(fp)
} /*lint !e818 EventGroupHandle_t is a typedef used in other functions to so can't be pointer to const. */
 40007b4:	e037883a 	mov	sp,fp
 40007b8:	df000017 	ldw	fp,0(sp)
 40007bc:	dec00104 	addi	sp,sp,4
 40007c0:	f800283a 	ret

040007c4 <xEventGroupSetBits>:
/*-----------------------------------------------------------*/

EventBits_t xEventGroupSetBits( EventGroupHandle_t xEventGroup,
                                const EventBits_t uxBitsToSet )
{
 40007c4:	defff304 	addi	sp,sp,-52
 40007c8:	dfc00c15 	stw	ra,48(sp)
 40007cc:	df000b15 	stw	fp,44(sp)
 40007d0:	df000b04 	addi	fp,sp,44
 40007d4:	e13ff615 	stw	r4,-40(fp)
 40007d8:	e17ff515 	stw	r5,-44(fp)
    ListItem_t * pxListItem;
    ListItem_t * pxNext;
    ListItem_t const * pxListEnd;
    List_t const * pxList;
    EventBits_t uxBitsToClear = 0, uxBitsWaitedFor, uxControlBits;
 40007dc:	e03ffe15 	stw	zero,-8(fp)
    EventGroup_t * pxEventBits = xEventGroup;
 40007e0:	e0bff617 	ldw	r2,-40(fp)
 40007e4:	e0bffc15 	stw	r2,-16(fp)
    BaseType_t xMatchFound = pdFALSE;
 40007e8:	e03ffd15 	stw	zero,-12(fp)
    /* Check the user is not attempting to set the bits used by the kernel
     * itself. */
    configASSERT( xEventGroup );
    configASSERT( ( uxBitsToSet & eventEVENT_BITS_CONTROL_BYTES ) == 0 );

    pxList = &( pxEventBits->xTasksWaitingForBits );
 40007ec:	e0bffc17 	ldw	r2,-16(fp)
 40007f0:	10800104 	addi	r2,r2,4
 40007f4:	e0bffb15 	stw	r2,-20(fp)
    pxListEnd = listGET_END_MARKER( pxList ); /*lint !e826 !e740 !e9087 The mini list structure is used as the list end to save RAM.  This is checked and valid. */
 40007f8:	e0bffb17 	ldw	r2,-20(fp)
 40007fc:	10800204 	addi	r2,r2,8
 4000800:	e0bffa15 	stw	r2,-24(fp)
    vTaskSuspendAll();
 4000804:	40046f00 	call	40046f0 <vTaskSuspendAll>
    {
        traceEVENT_GROUP_SET_BITS( xEventGroup, uxBitsToSet );

        pxListItem = listGET_HEAD_ENTRY( pxList );
 4000808:	e0bffb17 	ldw	r2,-20(fp)
 400080c:	10800317 	ldw	r2,12(r2)
 4000810:	e0bfff15 	stw	r2,-4(fp)

        /* Set the bits. */
        pxEventBits->uxEventBits |= uxBitsToSet;
 4000814:	e0bffc17 	ldw	r2,-16(fp)
 4000818:	10c00017 	ldw	r3,0(r2)
 400081c:	e0bff517 	ldw	r2,-44(fp)
 4000820:	1886b03a 	or	r3,r3,r2
 4000824:	e0bffc17 	ldw	r2,-16(fp)
 4000828:	10c00015 	stw	r3,0(r2)

        /* See if the new bit value should unblock any tasks. */
        while( pxListItem != pxListEnd )
 400082c:	00003306 	br	40008fc <xEventGroupSetBits+0x138>
        {
            pxNext = listGET_NEXT( pxListItem );
 4000830:	e0bfff17 	ldw	r2,-4(fp)
 4000834:	10800117 	ldw	r2,4(r2)
 4000838:	e0bff915 	stw	r2,-28(fp)
            uxBitsWaitedFor = listGET_LIST_ITEM_VALUE( pxListItem );
 400083c:	e0bfff17 	ldw	r2,-4(fp)
 4000840:	10800017 	ldw	r2,0(r2)
 4000844:	e0bff815 	stw	r2,-32(fp)
            xMatchFound = pdFALSE;
 4000848:	e03ffd15 	stw	zero,-12(fp)

            /* Split the bits waited for from the control bits. */
            uxControlBits = uxBitsWaitedFor & eventEVENT_BITS_CONTROL_BYTES;
 400084c:	e0bff817 	ldw	r2,-32(fp)
 4000850:	10bfc02c 	andhi	r2,r2,65280
 4000854:	e0bff715 	stw	r2,-36(fp)
            uxBitsWaitedFor &= ~eventEVENT_BITS_CONTROL_BYTES;
 4000858:	e0fff817 	ldw	r3,-32(fp)
 400085c:	00804034 	movhi	r2,256
 4000860:	10bfffc4 	addi	r2,r2,-1
 4000864:	1884703a 	and	r2,r3,r2
 4000868:	e0bff815 	stw	r2,-32(fp)

            if( ( uxControlBits & eventWAIT_FOR_ALL_BITS ) == ( EventBits_t ) 0 )
 400086c:	e0bff717 	ldw	r2,-36(fp)
 4000870:	1081002c 	andhi	r2,r2,1024
 4000874:	1000081e 	bne	r2,zero,4000898 <xEventGroupSetBits+0xd4>
            {
                /* Just looking for single bit being set. */
                if( ( uxBitsWaitedFor & pxEventBits->uxEventBits ) != ( EventBits_t ) 0 )
 4000878:	e0bffc17 	ldw	r2,-16(fp)
 400087c:	10c00017 	ldw	r3,0(r2)
 4000880:	e0bff817 	ldw	r2,-32(fp)
 4000884:	1884703a 	and	r2,r3,r2
 4000888:	10000b26 	beq	r2,zero,40008b8 <xEventGroupSetBits+0xf4>
                {
                    xMatchFound = pdTRUE;
 400088c:	00800044 	movi	r2,1
 4000890:	e0bffd15 	stw	r2,-12(fp)
 4000894:	00000806 	br	40008b8 <xEventGroupSetBits+0xf4>
                else
                {
                    mtCOVERAGE_TEST_MARKER();
                }
            }
            else if( ( uxBitsWaitedFor & pxEventBits->uxEventBits ) == uxBitsWaitedFor )
 4000898:	e0bffc17 	ldw	r2,-16(fp)
 400089c:	10c00017 	ldw	r3,0(r2)
 40008a0:	e0bff817 	ldw	r2,-32(fp)
 40008a4:	1884703a 	and	r2,r3,r2
 40008a8:	e0fff817 	ldw	r3,-32(fp)
 40008ac:	1880021e 	bne	r3,r2,40008b8 <xEventGroupSetBits+0xf4>
            {
                /* All bits are set. */
                xMatchFound = pdTRUE;
 40008b0:	00800044 	movi	r2,1
 40008b4:	e0bffd15 	stw	r2,-12(fp)
            else
            {
                /* Need all bits to be set, but not all the bits were set. */
            }

            if( xMatchFound != pdFALSE )
 40008b8:	e0bffd17 	ldw	r2,-12(fp)
 40008bc:	10000d26 	beq	r2,zero,40008f4 <xEventGroupSetBits+0x130>
            {
                /* The bits match.  Should the bits be cleared on exit? */
                if( ( uxControlBits & eventCLEAR_EVENTS_ON_EXIT_BIT ) != ( EventBits_t ) 0 )
 40008c0:	e0bff717 	ldw	r2,-36(fp)
 40008c4:	1080402c 	andhi	r2,r2,256
 40008c8:	10000426 	beq	r2,zero,40008dc <xEventGroupSetBits+0x118>
                {
                    uxBitsToClear |= uxBitsWaitedFor;
 40008cc:	e0fffe17 	ldw	r3,-8(fp)
 40008d0:	e0bff817 	ldw	r2,-32(fp)
 40008d4:	1884b03a 	or	r2,r3,r2
 40008d8:	e0bffe15 	stw	r2,-8(fp)
                /* Store the actual event flag value in the task's event list
                 * item before removing the task from the event list.  The
                 * eventUNBLOCKED_DUE_TO_BIT_SET bit is set so the task knows
                 * that is was unblocked due to its required bits matching, rather
                 * than because it timed out. */
                vTaskRemoveFromUnorderedEventList( pxListItem, pxEventBits->uxEventBits | eventUNBLOCKED_DUE_TO_BIT_SET );
 40008dc:	e0bffc17 	ldw	r2,-16(fp)
 40008e0:	10800017 	ldw	r2,0(r2)
 40008e4:	10808034 	orhi	r2,r2,512
 40008e8:	100b883a 	mov	r5,r2
 40008ec:	e13fff17 	ldw	r4,-4(fp)
 40008f0:	40052fc0 	call	40052fc <vTaskRemoveFromUnorderedEventList>
            }

            /* Move onto the next list item.  Note pxListItem->pxNext is not
             * used here as the list item may have been removed from the event list
             * and inserted into the ready/pending reading list. */
            pxListItem = pxNext;
 40008f4:	e0bff917 	ldw	r2,-28(fp)
 40008f8:	e0bfff15 	stw	r2,-4(fp)
        while( pxListItem != pxListEnd )
 40008fc:	e0ffff17 	ldw	r3,-4(fp)
 4000900:	e0bffa17 	ldw	r2,-24(fp)
 4000904:	18bfca1e 	bne	r3,r2,4000830 <xEventGroupSetBits+0x6c>
        }

        /* Clear any bits that matched when the eventCLEAR_EVENTS_ON_EXIT_BIT
         * bit was set in the control word. */
        pxEventBits->uxEventBits &= ~uxBitsToClear;
 4000908:	e0bffc17 	ldw	r2,-16(fp)
 400090c:	10c00017 	ldw	r3,0(r2)
 4000910:	e0bffe17 	ldw	r2,-8(fp)
 4000914:	0084303a 	nor	r2,zero,r2
 4000918:	1886703a 	and	r3,r3,r2
 400091c:	e0bffc17 	ldw	r2,-16(fp)
 4000920:	10c00015 	stw	r3,0(r2)
    }
    ( void ) xTaskResumeAll();
 4000924:	400471c0 	call	400471c <xTaskResumeAll>

    return pxEventBits->uxEventBits;
 4000928:	e0bffc17 	ldw	r2,-16(fp)
 400092c:	10800017 	ldw	r2,0(r2)
}
 4000930:	e037883a 	mov	sp,fp
 4000934:	dfc00117 	ldw	ra,4(sp)
 4000938:	df000017 	ldw	fp,0(sp)
 400093c:	dec00204 	addi	sp,sp,8
 4000940:	f800283a 	ret

04000944 <vEventGroupDelete>:
/*-----------------------------------------------------------*/

void vEventGroupDelete( EventGroupHandle_t xEventGroup )
{
 4000944:	defffb04 	addi	sp,sp,-20
 4000948:	dfc00415 	stw	ra,16(sp)
 400094c:	df000315 	stw	fp,12(sp)
 4000950:	df000304 	addi	fp,sp,12
 4000954:	e13ffd15 	stw	r4,-12(fp)
    EventGroup_t * pxEventBits = xEventGroup;
 4000958:	e0bffd17 	ldw	r2,-12(fp)
 400095c:	e0bfff15 	stw	r2,-4(fp)
    const List_t * pxTasksWaitingForBits;

    configASSERT( pxEventBits );

    pxTasksWaitingForBits = &( pxEventBits->xTasksWaitingForBits );
 4000960:	e0bfff17 	ldw	r2,-4(fp)
 4000964:	10800104 	addi	r2,r2,4
 4000968:	e0bffe15 	stw	r2,-8(fp)

    vTaskSuspendAll();
 400096c:	40046f00 	call	40046f0 <vTaskSuspendAll>
    {
        traceEVENT_GROUP_DELETE( xEventGroup );

        while( listCURRENT_LIST_LENGTH( pxTasksWaitingForBits ) > ( UBaseType_t ) 0 )
 4000970:	00000506 	br	4000988 <vEventGroupDelete+0x44>
        {
            /* Unblock the task, returning 0 as the event list is being deleted
             * and cannot therefore have any bits set. */
            configASSERT( pxTasksWaitingForBits->xListEnd.pxNext != ( const ListItem_t * ) &( pxTasksWaitingForBits->xListEnd ) );
            vTaskRemoveFromUnorderedEventList( pxTasksWaitingForBits->xListEnd.pxNext, eventUNBLOCKED_DUE_TO_BIT_SET );
 4000974:	e0bffe17 	ldw	r2,-8(fp)
 4000978:	10800317 	ldw	r2,12(r2)
 400097c:	01408034 	movhi	r5,512
 4000980:	1009883a 	mov	r4,r2
 4000984:	40052fc0 	call	40052fc <vTaskRemoveFromUnorderedEventList>
        while( listCURRENT_LIST_LENGTH( pxTasksWaitingForBits ) > ( UBaseType_t ) 0 )
 4000988:	e0bffe17 	ldw	r2,-8(fp)
 400098c:	10800017 	ldw	r2,0(r2)
 4000990:	103ff81e 	bne	r2,zero,4000974 <vEventGroupDelete+0x30>
        }
    }
    ( void ) xTaskResumeAll();
 4000994:	400471c0 	call	400471c <xTaskResumeAll>

    #if ( ( configSUPPORT_DYNAMIC_ALLOCATION == 1 ) && ( configSUPPORT_STATIC_ALLOCATION == 0 ) )
    {
        /* The event group can only have been allocated dynamically - free
         * it again. */
        vPortFree( pxEventBits );
 4000998:	e13fff17 	ldw	r4,-4(fp)
 400099c:	40011240 	call	4001124 <vPortFree>
        {
            mtCOVERAGE_TEST_MARKER();
        }
    }
    #endif /* configSUPPORT_DYNAMIC_ALLOCATION */
}
 40009a0:	0001883a 	nop
 40009a4:	e037883a 	mov	sp,fp
 40009a8:	dfc00117 	ldw	ra,4(sp)
 40009ac:	df000017 	ldw	fp,0(sp)
 40009b0:	dec00204 	addi	sp,sp,8
 40009b4:	f800283a 	ret

040009b8 <vEventGroupSetBitsCallback>:

/* For internal use only - execute a 'set bits' command that was pended from
 * an interrupt. */
void vEventGroupSetBitsCallback( void * pvEventGroup,
                                 const uint32_t ulBitsToSet )
{
 40009b8:	defffc04 	addi	sp,sp,-16
 40009bc:	dfc00315 	stw	ra,12(sp)
 40009c0:	df000215 	stw	fp,8(sp)
 40009c4:	df000204 	addi	fp,sp,8
 40009c8:	e13fff15 	stw	r4,-4(fp)
 40009cc:	e17ffe15 	stw	r5,-8(fp)
    ( void ) xEventGroupSetBits( pvEventGroup, ( EventBits_t ) ulBitsToSet ); /*lint !e9079 Can't avoid cast to void* as a generic timer callback prototype. Callback casts back to original type so safe. */
 40009d0:	e17ffe17 	ldw	r5,-8(fp)
 40009d4:	e13fff17 	ldw	r4,-4(fp)
 40009d8:	40007c40 	call	40007c4 <xEventGroupSetBits>
}
 40009dc:	0001883a 	nop
 40009e0:	e037883a 	mov	sp,fp
 40009e4:	dfc00117 	ldw	ra,4(sp)
 40009e8:	df000017 	ldw	fp,0(sp)
 40009ec:	dec00204 	addi	sp,sp,8
 40009f0:	f800283a 	ret

040009f4 <vEventGroupClearBitsCallback>:

/* For internal use only - execute a 'clear bits' command that was pended from
 * an interrupt. */
void vEventGroupClearBitsCallback( void * pvEventGroup,
                                   const uint32_t ulBitsToClear )
{
 40009f4:	defffc04 	addi	sp,sp,-16
 40009f8:	dfc00315 	stw	ra,12(sp)
 40009fc:	df000215 	stw	fp,8(sp)
 4000a00:	df000204 	addi	fp,sp,8
 4000a04:	e13fff15 	stw	r4,-4(fp)
 4000a08:	e17ffe15 	stw	r5,-8(fp)
    ( void ) xEventGroupClearBits( pvEventGroup, ( EventBits_t ) ulBitsToClear ); /*lint !e9079 Can't avoid cast to void* as a generic timer callback prototype. Callback casts back to original type so safe. */
 4000a0c:	e17ffe17 	ldw	r5,-8(fp)
 4000a10:	e13fff17 	ldw	r4,-4(fp)
 4000a14:	40007200 	call	4000720 <xEventGroupClearBits>
}
 4000a18:	0001883a 	nop
 4000a1c:	e037883a 	mov	sp,fp
 4000a20:	dfc00117 	ldw	ra,4(sp)
 4000a24:	df000017 	ldw	fp,0(sp)
 4000a28:	dec00204 	addi	sp,sp,8
 4000a2c:	f800283a 	ret

04000a30 <prvTestWaitCondition>:
/*-----------------------------------------------------------*/

static BaseType_t prvTestWaitCondition( const EventBits_t uxCurrentEventBits,
                                        const EventBits_t uxBitsToWaitFor,
                                        const BaseType_t xWaitForAllBits )
{
 4000a30:	defffb04 	addi	sp,sp,-20
 4000a34:	df000415 	stw	fp,16(sp)
 4000a38:	df000404 	addi	fp,sp,16
 4000a3c:	e13ffe15 	stw	r4,-8(fp)
 4000a40:	e17ffd15 	stw	r5,-12(fp)
 4000a44:	e1bffc15 	stw	r6,-16(fp)
    BaseType_t xWaitConditionMet = pdFALSE;
 4000a48:	e03fff15 	stw	zero,-4(fp)

    if( xWaitForAllBits == pdFALSE )
 4000a4c:	e0bffc17 	ldw	r2,-16(fp)
 4000a50:	1000071e 	bne	r2,zero,4000a70 <prvTestWaitCondition+0x40>
    {
        /* Task only has to wait for one bit within uxBitsToWaitFor to be
         * set.  Is one already set? */
        if( ( uxCurrentEventBits & uxBitsToWaitFor ) != ( EventBits_t ) 0 )
 4000a54:	e0fffe17 	ldw	r3,-8(fp)
 4000a58:	e0bffd17 	ldw	r2,-12(fp)
 4000a5c:	1884703a 	and	r2,r3,r2
 4000a60:	10000a26 	beq	r2,zero,4000a8c <prvTestWaitCondition+0x5c>
        {
            xWaitConditionMet = pdTRUE;
 4000a64:	00800044 	movi	r2,1
 4000a68:	e0bfff15 	stw	r2,-4(fp)
 4000a6c:	00000706 	br	4000a8c <prvTestWaitCondition+0x5c>
    }
    else
    {
        /* Task has to wait for all the bits in uxBitsToWaitFor to be set.
         * Are they set already? */
        if( ( uxCurrentEventBits & uxBitsToWaitFor ) == uxBitsToWaitFor )
 4000a70:	e0fffe17 	ldw	r3,-8(fp)
 4000a74:	e0bffd17 	ldw	r2,-12(fp)
 4000a78:	1884703a 	and	r2,r3,r2
 4000a7c:	e0fffd17 	ldw	r3,-12(fp)
 4000a80:	1880021e 	bne	r3,r2,4000a8c <prvTestWaitCondition+0x5c>
        {
            xWaitConditionMet = pdTRUE;
 4000a84:	00800044 	movi	r2,1
 4000a88:	e0bfff15 	stw	r2,-4(fp)
        {
            mtCOVERAGE_TEST_MARKER();
        }
    }

    return xWaitConditionMet;
 4000a8c:	e0bfff17 	ldw	r2,-4(fp)
}
 4000a90:	e037883a 	mov	sp,fp
 4000a94:	df000017 	ldw	fp,0(sp)
 4000a98:	dec00104 	addi	sp,sp,4
 4000a9c:	f800283a 	ret

04000aa0 <vListInitialise>:
/*-----------------------------------------------------------
* PUBLIC LIST API documented in list.h
*----------------------------------------------------------*/

void vListInitialise( List_t * const pxList )
{
 4000aa0:	defffe04 	addi	sp,sp,-8
 4000aa4:	df000115 	stw	fp,4(sp)
 4000aa8:	df000104 	addi	fp,sp,4
 4000aac:	e13fff15 	stw	r4,-4(fp)
    /* The list structure contains a list item which is used to mark the
     * end of the list.  To initialise the list the list end is inserted
     * as the only list entry. */
    pxList->pxIndex = ( ListItem_t * ) &( pxList->xListEnd ); /*lint !e826 !e740 !e9087 The mini list structure is used as the list end to save RAM.  This is checked and valid. */
 4000ab0:	e0bfff17 	ldw	r2,-4(fp)
 4000ab4:	10c00204 	addi	r3,r2,8
 4000ab8:	e0bfff17 	ldw	r2,-4(fp)
 4000abc:	10c00115 	stw	r3,4(r2)

    listSET_FIRST_LIST_ITEM_INTEGRITY_CHECK_VALUE( &( pxList->xListEnd ) );

    /* The list end value is the highest possible value in the list to
     * ensure it remains at the end of the list. */
    pxList->xListEnd.xItemValue = portMAX_DELAY;
 4000ac0:	e0bfff17 	ldw	r2,-4(fp)
 4000ac4:	00ffffc4 	movi	r3,-1
 4000ac8:	10c00215 	stw	r3,8(r2)

    /* The list end next and previous pointers point to itself so we know
     * when the list is empty. */
    pxList->xListEnd.pxNext = ( ListItem_t * ) &( pxList->xListEnd );     /*lint !e826 !e740 !e9087 The mini list structure is used as the list end to save RAM.  This is checked and valid. */
 4000acc:	e0bfff17 	ldw	r2,-4(fp)
 4000ad0:	10c00204 	addi	r3,r2,8
 4000ad4:	e0bfff17 	ldw	r2,-4(fp)
 4000ad8:	10c00315 	stw	r3,12(r2)
    pxList->xListEnd.pxPrevious = ( ListItem_t * ) &( pxList->xListEnd ); /*lint !e826 !e740 !e9087 The mini list structure is used as the list end to save RAM.  This is checked and valid. */
 4000adc:	e0bfff17 	ldw	r2,-4(fp)
 4000ae0:	10c00204 	addi	r3,r2,8
 4000ae4:	e0bfff17 	ldw	r2,-4(fp)
 4000ae8:	10c00415 	stw	r3,16(r2)
        pxList->xListEnd.pxContainer = NULL;
        listSET_SECOND_LIST_ITEM_INTEGRITY_CHECK_VALUE( &( pxList->xListEnd ) );
    }
    #endif

    pxList->uxNumberOfItems = ( UBaseType_t ) 0U;
 4000aec:	e0bfff17 	ldw	r2,-4(fp)
 4000af0:	10000015 	stw	zero,0(r2)

    /* Write known values into the list if
     * configUSE_LIST_DATA_INTEGRITY_CHECK_BYTES is set to 1. */
    listSET_LIST_INTEGRITY_CHECK_1_VALUE( pxList );
    listSET_LIST_INTEGRITY_CHECK_2_VALUE( pxList );
}
 4000af4:	0001883a 	nop
 4000af8:	e037883a 	mov	sp,fp
 4000afc:	df000017 	ldw	fp,0(sp)
 4000b00:	dec00104 	addi	sp,sp,4
 4000b04:	f800283a 	ret

04000b08 <vListInitialiseItem>:
/*-----------------------------------------------------------*/

void vListInitialiseItem( ListItem_t * const pxItem )
{
 4000b08:	defffe04 	addi	sp,sp,-8
 4000b0c:	df000115 	stw	fp,4(sp)
 4000b10:	df000104 	addi	fp,sp,4
 4000b14:	e13fff15 	stw	r4,-4(fp)
    /* Make sure the list item is not recorded as being on a list. */
    pxItem->pxContainer = NULL;
 4000b18:	e0bfff17 	ldw	r2,-4(fp)
 4000b1c:	10000415 	stw	zero,16(r2)

    /* Write known values into the list item if
     * configUSE_LIST_DATA_INTEGRITY_CHECK_BYTES is set to 1. */
    listSET_FIRST_LIST_ITEM_INTEGRITY_CHECK_VALUE( pxItem );
    listSET_SECOND_LIST_ITEM_INTEGRITY_CHECK_VALUE( pxItem );
}
 4000b20:	0001883a 	nop
 4000b24:	e037883a 	mov	sp,fp
 4000b28:	df000017 	ldw	fp,0(sp)
 4000b2c:	dec00104 	addi	sp,sp,4
 4000b30:	f800283a 	ret

04000b34 <vListInsertEnd>:
/*-----------------------------------------------------------*/

void vListInsertEnd( List_t * const pxList,
                     ListItem_t * const pxNewListItem )
{
 4000b34:	defffc04 	addi	sp,sp,-16
 4000b38:	df000315 	stw	fp,12(sp)
 4000b3c:	df000304 	addi	fp,sp,12
 4000b40:	e13ffe15 	stw	r4,-8(fp)
 4000b44:	e17ffd15 	stw	r5,-12(fp)
    ListItem_t * const pxIndex = pxList->pxIndex;
 4000b48:	e0bffe17 	ldw	r2,-8(fp)
 4000b4c:	10800117 	ldw	r2,4(r2)
 4000b50:	e0bfff15 	stw	r2,-4(fp)
    listTEST_LIST_ITEM_INTEGRITY( pxNewListItem );

    /* Insert a new list item into pxList, but rather than sort the list,
     * makes the new list item the last item to be removed by a call to
     * listGET_OWNER_OF_NEXT_ENTRY(). */
    pxNewListItem->pxNext = pxIndex;
 4000b54:	e0bffd17 	ldw	r2,-12(fp)
 4000b58:	e0ffff17 	ldw	r3,-4(fp)
 4000b5c:	10c00115 	stw	r3,4(r2)
    pxNewListItem->pxPrevious = pxIndex->pxPrevious;
 4000b60:	e0bfff17 	ldw	r2,-4(fp)
 4000b64:	10c00217 	ldw	r3,8(r2)
 4000b68:	e0bffd17 	ldw	r2,-12(fp)
 4000b6c:	10c00215 	stw	r3,8(r2)

    /* Only used during decision coverage testing. */
    mtCOVERAGE_TEST_DELAY();

    pxIndex->pxPrevious->pxNext = pxNewListItem;
 4000b70:	e0bfff17 	ldw	r2,-4(fp)
 4000b74:	10800217 	ldw	r2,8(r2)
 4000b78:	e0fffd17 	ldw	r3,-12(fp)
 4000b7c:	10c00115 	stw	r3,4(r2)
    pxIndex->pxPrevious = pxNewListItem;
 4000b80:	e0bfff17 	ldw	r2,-4(fp)
 4000b84:	e0fffd17 	ldw	r3,-12(fp)
 4000b88:	10c00215 	stw	r3,8(r2)

    /* Remember which list the item is in. */
    pxNewListItem->pxContainer = pxList;
 4000b8c:	e0bffd17 	ldw	r2,-12(fp)
 4000b90:	e0fffe17 	ldw	r3,-8(fp)
 4000b94:	10c00415 	stw	r3,16(r2)

    ( pxList->uxNumberOfItems )++;
 4000b98:	e0bffe17 	ldw	r2,-8(fp)
 4000b9c:	10800017 	ldw	r2,0(r2)
 4000ba0:	10c00044 	addi	r3,r2,1
 4000ba4:	e0bffe17 	ldw	r2,-8(fp)
 4000ba8:	10c00015 	stw	r3,0(r2)
}
 4000bac:	0001883a 	nop
 4000bb0:	e037883a 	mov	sp,fp
 4000bb4:	df000017 	ldw	fp,0(sp)
 4000bb8:	dec00104 	addi	sp,sp,4
 4000bbc:	f800283a 	ret

04000bc0 <vListInsert>:
/*-----------------------------------------------------------*/

void vListInsert( List_t * const pxList,
                  ListItem_t * const pxNewListItem )
{
 4000bc0:	defffb04 	addi	sp,sp,-20
 4000bc4:	df000415 	stw	fp,16(sp)
 4000bc8:	df000404 	addi	fp,sp,16
 4000bcc:	e13ffd15 	stw	r4,-12(fp)
 4000bd0:	e17ffc15 	stw	r5,-16(fp)
    ListItem_t * pxIterator;
    const TickType_t xValueOfInsertion = pxNewListItem->xItemValue;
 4000bd4:	e0bffc17 	ldw	r2,-16(fp)
 4000bd8:	10800017 	ldw	r2,0(r2)
 4000bdc:	e0bffe15 	stw	r2,-8(fp)
     * new list item should be placed after it.  This ensures that TCBs which are
     * stored in ready lists (all of which have the same xItemValue value) get a
     * share of the CPU.  However, if the xItemValue is the same as the back marker
     * the iteration loop below will not end.  Therefore the value is checked
     * first, and the algorithm slightly modified if necessary. */
    if( xValueOfInsertion == portMAX_DELAY )
 4000be0:	e0bffe17 	ldw	r2,-8(fp)
 4000be4:	10bfffd8 	cmpnei	r2,r2,-1
 4000be8:	1000041e 	bne	r2,zero,4000bfc <vListInsert+0x3c>
    {
        pxIterator = pxList->xListEnd.pxPrevious;
 4000bec:	e0bffd17 	ldw	r2,-12(fp)
 4000bf0:	10800417 	ldw	r2,16(r2)
 4000bf4:	e0bfff15 	stw	r2,-4(fp)
 4000bf8:	00000c06 	br	4000c2c <vListInsert+0x6c>
        *   5) If the FreeRTOS port supports interrupt nesting then ensure that
        *      the priority of the tick interrupt is at or below
        *      configMAX_SYSCALL_INTERRUPT_PRIORITY.
        **********************************************************************/

        for( pxIterator = ( ListItem_t * ) &( pxList->xListEnd ); pxIterator->pxNext->xItemValue <= xValueOfInsertion; pxIterator = pxIterator->pxNext ) /*lint !e826 !e740 !e9087 The mini list structure is used as the list end to save RAM.  This is checked and valid. *//*lint !e440 The iterator moves to a different value, not xValueOfInsertion. */
 4000bfc:	e0bffd17 	ldw	r2,-12(fp)
 4000c00:	10800204 	addi	r2,r2,8
 4000c04:	e0bfff15 	stw	r2,-4(fp)
 4000c08:	00000306 	br	4000c18 <vListInsert+0x58>
 4000c0c:	e0bfff17 	ldw	r2,-4(fp)
 4000c10:	10800117 	ldw	r2,4(r2)
 4000c14:	e0bfff15 	stw	r2,-4(fp)
 4000c18:	e0bfff17 	ldw	r2,-4(fp)
 4000c1c:	10800117 	ldw	r2,4(r2)
 4000c20:	10800017 	ldw	r2,0(r2)
 4000c24:	e0fffe17 	ldw	r3,-8(fp)
 4000c28:	18bff82e 	bgeu	r3,r2,4000c0c <vListInsert+0x4c>
            /* There is nothing to do here, just iterating to the wanted
             * insertion position. */
        }
    }

    pxNewListItem->pxNext = pxIterator->pxNext;
 4000c2c:	e0bfff17 	ldw	r2,-4(fp)
 4000c30:	10c00117 	ldw	r3,4(r2)
 4000c34:	e0bffc17 	ldw	r2,-16(fp)
 4000c38:	10c00115 	stw	r3,4(r2)
    pxNewListItem->pxNext->pxPrevious = pxNewListItem;
 4000c3c:	e0bffc17 	ldw	r2,-16(fp)
 4000c40:	10800117 	ldw	r2,4(r2)
 4000c44:	e0fffc17 	ldw	r3,-16(fp)
 4000c48:	10c00215 	stw	r3,8(r2)
    pxNewListItem->pxPrevious = pxIterator;
 4000c4c:	e0bffc17 	ldw	r2,-16(fp)
 4000c50:	e0ffff17 	ldw	r3,-4(fp)
 4000c54:	10c00215 	stw	r3,8(r2)
    pxIterator->pxNext = pxNewListItem;
 4000c58:	e0bfff17 	ldw	r2,-4(fp)
 4000c5c:	e0fffc17 	ldw	r3,-16(fp)
 4000c60:	10c00115 	stw	r3,4(r2)

    /* Remember which list the item is in.  This allows fast removal of the
     * item later. */
    pxNewListItem->pxContainer = pxList;
 4000c64:	e0bffc17 	ldw	r2,-16(fp)
 4000c68:	e0fffd17 	ldw	r3,-12(fp)
 4000c6c:	10c00415 	stw	r3,16(r2)

    ( pxList->uxNumberOfItems )++;
 4000c70:	e0bffd17 	ldw	r2,-12(fp)
 4000c74:	10800017 	ldw	r2,0(r2)
 4000c78:	10c00044 	addi	r3,r2,1
 4000c7c:	e0bffd17 	ldw	r2,-12(fp)
 4000c80:	10c00015 	stw	r3,0(r2)
}
 4000c84:	0001883a 	nop
 4000c88:	e037883a 	mov	sp,fp
 4000c8c:	df000017 	ldw	fp,0(sp)
 4000c90:	dec00104 	addi	sp,sp,4
 4000c94:	f800283a 	ret

04000c98 <uxListRemove>:
/*-----------------------------------------------------------*/

UBaseType_t uxListRemove( ListItem_t * const pxItemToRemove )
{
 4000c98:	defffd04 	addi	sp,sp,-12
 4000c9c:	df000215 	stw	fp,8(sp)
 4000ca0:	df000204 	addi	fp,sp,8
 4000ca4:	e13ffe15 	stw	r4,-8(fp)
/* The list item knows which list it is in.  Obtain the list from the list
 * item. */
    List_t * const pxList = pxItemToRemove->pxContainer;
 4000ca8:	e0bffe17 	ldw	r2,-8(fp)
 4000cac:	10800417 	ldw	r2,16(r2)
 4000cb0:	e0bfff15 	stw	r2,-4(fp)

    pxItemToRemove->pxNext->pxPrevious = pxItemToRemove->pxPrevious;
 4000cb4:	e0bffe17 	ldw	r2,-8(fp)
 4000cb8:	10800117 	ldw	r2,4(r2)
 4000cbc:	e0fffe17 	ldw	r3,-8(fp)
 4000cc0:	18c00217 	ldw	r3,8(r3)
 4000cc4:	10c00215 	stw	r3,8(r2)
    pxItemToRemove->pxPrevious->pxNext = pxItemToRemove->pxNext;
 4000cc8:	e0bffe17 	ldw	r2,-8(fp)
 4000ccc:	10800217 	ldw	r2,8(r2)
 4000cd0:	e0fffe17 	ldw	r3,-8(fp)
 4000cd4:	18c00117 	ldw	r3,4(r3)
 4000cd8:	10c00115 	stw	r3,4(r2)

    /* Only used during decision coverage testing. */
    mtCOVERAGE_TEST_DELAY();

    /* Make sure the index is left pointing to a valid item. */
    if( pxList->pxIndex == pxItemToRemove )
 4000cdc:	e0bfff17 	ldw	r2,-4(fp)
 4000ce0:	10800117 	ldw	r2,4(r2)
 4000ce4:	e0fffe17 	ldw	r3,-8(fp)
 4000ce8:	1880041e 	bne	r3,r2,4000cfc <uxListRemove+0x64>
    {
        pxList->pxIndex = pxItemToRemove->pxPrevious;
 4000cec:	e0bffe17 	ldw	r2,-8(fp)
 4000cf0:	10c00217 	ldw	r3,8(r2)
 4000cf4:	e0bfff17 	ldw	r2,-4(fp)
 4000cf8:	10c00115 	stw	r3,4(r2)
    else
    {
        mtCOVERAGE_TEST_MARKER();
    }

    pxItemToRemove->pxContainer = NULL;
 4000cfc:	e0bffe17 	ldw	r2,-8(fp)
 4000d00:	10000415 	stw	zero,16(r2)
    ( pxList->uxNumberOfItems )--;
 4000d04:	e0bfff17 	ldw	r2,-4(fp)
 4000d08:	10800017 	ldw	r2,0(r2)
 4000d0c:	10ffffc4 	addi	r3,r2,-1
 4000d10:	e0bfff17 	ldw	r2,-4(fp)
 4000d14:	10c00015 	stw	r3,0(r2)

    return pxList->uxNumberOfItems;
 4000d18:	e0bfff17 	ldw	r2,-4(fp)
 4000d1c:	10800017 	ldw	r2,0(r2)
}
 4000d20:	e037883a 	mov	sp,fp
 4000d24:	df000017 	ldw	fp,0(sp)
 4000d28:	dec00104 	addi	sp,sp,4
 4000d2c:	f800283a 	ret

04000d30 <prvReadGp>:
void vPortSysTickHandler( void * context);

/*-----------------------------------------------------------*/

static void prvReadGp( uint32_t *ulValue )
{
 4000d30:	defffe04 	addi	sp,sp,-8
 4000d34:	df000115 	stw	fp,4(sp)
 4000d38:	df000104 	addi	fp,sp,4
 4000d3c:	e13fff15 	stw	r4,-4(fp)
	asm( "stw gp, (%0)" :: "r"(ulValue) );
 4000d40:	e0bfff17 	ldw	r2,-4(fp)
 4000d44:	16800015 	stw	gp,0(r2)
}
 4000d48:	0001883a 	nop
 4000d4c:	e037883a 	mov	sp,fp
 4000d50:	df000017 	ldw	fp,0(sp)
 4000d54:	dec00104 	addi	sp,sp,4
 4000d58:	f800283a 	ret

04000d5c <pxPortInitialiseStack>:

/* 
 * See header file for description. 
 */
StackType_t *pxPortInitialiseStack( StackType_t *pxTopOfStack, TaskFunction_t pxCode, void *pvParameters )
{    
 4000d5c:	defff904 	addi	sp,sp,-28
 4000d60:	dfc00615 	stw	ra,24(sp)
 4000d64:	df000515 	stw	fp,20(sp)
 4000d68:	df000504 	addi	fp,sp,20
 4000d6c:	e13ffd15 	stw	r4,-12(fp)
 4000d70:	e17ffc15 	stw	r5,-16(fp)
 4000d74:	e1bffb15 	stw	r6,-20(fp)
StackType_t *pxFramePointer = pxTopOfStack - 1;
 4000d78:	e0bffd17 	ldw	r2,-12(fp)
 4000d7c:	10bfff04 	addi	r2,r2,-4
 4000d80:	e0bfff15 	stw	r2,-4(fp)
StackType_t xGlobalPointer;

    prvReadGp( &xGlobalPointer ); 
 4000d84:	e0bffe04 	addi	r2,fp,-8
 4000d88:	1009883a 	mov	r4,r2
 4000d8c:	4000d300 	call	4000d30 <prvReadGp>

    /* End of stack marker. */
    *pxTopOfStack = 0xdeadbeef;
 4000d90:	e0fffd17 	ldw	r3,-12(fp)
 4000d94:	00b7abb4 	movhi	r2,57006
 4000d98:	10afbbc4 	addi	r2,r2,-16657
 4000d9c:	18800015 	stw	r2,0(r3)
    pxTopOfStack--;
 4000da0:	e0bffd17 	ldw	r2,-12(fp)
 4000da4:	10bfff04 	addi	r2,r2,-4
 4000da8:	e0bffd15 	stw	r2,-12(fp)
    
    *pxTopOfStack = ( StackType_t ) pxFramePointer; 
 4000dac:	e0ffff17 	ldw	r3,-4(fp)
 4000db0:	e0bffd17 	ldw	r2,-12(fp)
 4000db4:	10c00015 	stw	r3,0(r2)
    pxTopOfStack--;
 4000db8:	e0bffd17 	ldw	r2,-12(fp)
 4000dbc:	10bfff04 	addi	r2,r2,-4
 4000dc0:	e0bffd15 	stw	r2,-12(fp)
    
    *pxTopOfStack = xGlobalPointer; 
 4000dc4:	e0fffe17 	ldw	r3,-8(fp)
 4000dc8:	e0bffd17 	ldw	r2,-12(fp)
 4000dcc:	10c00015 	stw	r3,0(r2)
    
    /* Space for R23 to R16. */
    pxTopOfStack -= 9;
 4000dd0:	e0bffd17 	ldw	r2,-12(fp)
 4000dd4:	10bff704 	addi	r2,r2,-36
 4000dd8:	e0bffd15 	stw	r2,-12(fp)

    *pxTopOfStack = ( StackType_t ) pxCode; 
 4000ddc:	e0fffc17 	ldw	r3,-16(fp)
 4000de0:	e0bffd17 	ldw	r2,-12(fp)
 4000de4:	10c00015 	stw	r3,0(r2)
    pxTopOfStack--;
 4000de8:	e0bffd17 	ldw	r2,-12(fp)
 4000dec:	10bfff04 	addi	r2,r2,-4
 4000df0:	e0bffd15 	stw	r2,-12(fp)

    *pxTopOfStack = portINITIAL_ESTATUS; 
 4000df4:	e0bffd17 	ldw	r2,-12(fp)
 4000df8:	00c00044 	movi	r3,1
 4000dfc:	10c00015 	stw	r3,0(r2)

    /* Space for R15 to R5. */    
    pxTopOfStack -= 12;
 4000e00:	e0bffd17 	ldw	r2,-12(fp)
 4000e04:	10bff404 	addi	r2,r2,-48
 4000e08:	e0bffd15 	stw	r2,-12(fp)
    
    *pxTopOfStack = ( StackType_t ) pvParameters; 
 4000e0c:	e0fffb17 	ldw	r3,-20(fp)
 4000e10:	e0bffd17 	ldw	r2,-12(fp)
 4000e14:	10c00015 	stw	r3,0(r2)

    /* Space for R3 to R1, muldiv and RA. */
    pxTopOfStack -= 5;
 4000e18:	e0bffd17 	ldw	r2,-12(fp)
 4000e1c:	10bffb04 	addi	r2,r2,-20
 4000e20:	e0bffd15 	stw	r2,-12(fp)
    
    return pxTopOfStack;
 4000e24:	e0bffd17 	ldw	r2,-12(fp)
}
 4000e28:	e037883a 	mov	sp,fp
 4000e2c:	dfc00117 	ldw	ra,4(sp)
 4000e30:	df000017 	ldw	fp,0(sp)
 4000e34:	dec00204 	addi	sp,sp,8
 4000e38:	f800283a 	ret

04000e3c <xPortStartScheduler>:

/* 
 * See header file for description. 
 */
BaseType_t xPortStartScheduler( void )
{
 4000e3c:	defffe04 	addi	sp,sp,-8
 4000e40:	dfc00115 	stw	ra,4(sp)
 4000e44:	df000015 	stw	fp,0(sp)
 4000e48:	d839883a 	mov	fp,sp
	/* Start the timer that generates the tick ISR.  Interrupts are disabled
	here already. */
	prvSetupTimerInterrupt();
 4000e4c:	4000e940 	call	4000e94 <prvSetupTimerInterrupt>
 4000e50:	00810034 	movhi	r2,1024
	
	/* Start the first task. */
    asm volatile (  " movia r2, restore_sp_from_pxCurrentTCB        \n"
 4000e54:	10805704 	addi	r2,r2,348
 4000e58:	1000683a 	jmp	r2
                    " jmp r2                                          " );

	/* Should not get here! */
	return 0;
 4000e5c:	0005883a 	mov	r2,zero
}
 4000e60:	e037883a 	mov	sp,fp
 4000e64:	dfc00117 	ldw	ra,4(sp)
 4000e68:	df000017 	ldw	fp,0(sp)
 4000e6c:	dec00204 	addi	sp,sp,8
 4000e70:	f800283a 	ret

04000e74 <vPortEndScheduler>:
/*-----------------------------------------------------------*/

void vPortEndScheduler( void )
{
 4000e74:	deffff04 	addi	sp,sp,-4
 4000e78:	df000015 	stw	fp,0(sp)
 4000e7c:	d839883a 	mov	fp,sp
	/* It is unlikely that the NIOS2 port will require this function as there
	is nothing to return to.  */
}
 4000e80:	0001883a 	nop
 4000e84:	e037883a 	mov	sp,fp
 4000e88:	df000017 	ldw	fp,0(sp)
 4000e8c:	dec00104 	addi	sp,sp,4
 4000e90:	f800283a 	ret

04000e94 <prvSetupTimerInterrupt>:
/*
 * Setup the systick timer to generate the tick interrupts at the required
 * frequency.
 */
void prvSetupTimerInterrupt( void )
{
 4000e94:	defffd04 	addi	sp,sp,-12
 4000e98:	dfc00215 	stw	ra,8(sp)
 4000e9c:	df000115 	stw	fp,4(sp)
 4000ea0:	df000104 	addi	fp,sp,4
	/* Try to register the interrupt handler. */
	if ( -EINVAL == _alt_ic_isr_register( SYS_CLK_IRQ_INTERRUPT_CONTROLLER_ID, SYS_CLK_IRQ, vPortSysTickHandler, 0x0, 0x0 ) )
 4000ea4:	d8000015 	stw	zero,0(sp)
 4000ea8:	000f883a 	mov	r7,zero
 4000eac:	01810034 	movhi	r6,1024
 4000eb0:	3183c904 	addi	r6,r6,3876
 4000eb4:	000b883a 	mov	r5,zero
 4000eb8:	0009883a 	mov	r4,zero
 4000ebc:	4000f680 	call	4000f68 <_alt_ic_isr_register>
 4000ec0:	10bffa98 	cmpnei	r2,r2,-22
 4000ec4:	1000021e 	bne	r2,zero,4000ed0 <prvSetupTimerInterrupt+0x3c>
	{ 
		/* Failed to install the Interrupt Handler. */
		asm( "break" );
 4000ec8:	003da03a 	break	0
 4000ecc:	00000c06 	br	4000f00 <prvSetupTimerInterrupt+0x6c>
	}
	else
	{
		/* Configure SysTick to interrupt at the requested rate. */
		IOWR_ALTERA_AVALON_TIMER_CONTROL( SYS_CLK_BASE, ALTERA_AVALON_TIMER_CONTROL_STOP_MSK );
 4000ed0:	00c00204 	movi	r3,8
 4000ed4:	00820034 	movhi	r2,2048
 4000ed8:	10c40135 	stwio	r3,4100(r2)
		IOWR_ALTERA_AVALON_TIMER_PERIODL( SYS_CLK_BASE, ( configCPU_CLOCK_HZ / configTICK_RATE_HZ ) & 0xFFFF );
 4000edc:	00f0d414 	movui	r3,50000
 4000ee0:	00820034 	movhi	r2,2048
 4000ee4:	10c40235 	stwio	r3,4104(r2)
		IOWR_ALTERA_AVALON_TIMER_PERIODH( SYS_CLK_BASE, ( configCPU_CLOCK_HZ / configTICK_RATE_HZ ) >> 16 );
 4000ee8:	0007883a 	mov	r3,zero
 4000eec:	00820034 	movhi	r2,2048
 4000ef0:	10c40335 	stwio	r3,4108(r2)
		IOWR_ALTERA_AVALON_TIMER_CONTROL( SYS_CLK_BASE, ALTERA_AVALON_TIMER_CONTROL_CONT_MSK | ALTERA_AVALON_TIMER_CONTROL_START_MSK | ALTERA_AVALON_TIMER_CONTROL_ITO_MSK );	
 4000ef4:	00c001c4 	movi	r3,7
 4000ef8:	00820034 	movhi	r2,2048
 4000efc:	10c40135 	stwio	r3,4100(r2)
	} 

	/* Clear any already pending interrupts generated by the Timer. */
	IOWR_ALTERA_AVALON_TIMER_STATUS( SYS_CLK_BASE, ~ALTERA_AVALON_TIMER_STATUS_TO_MSK );
 4000f00:	00ffff84 	movi	r3,-2
 4000f04:	00820034 	movhi	r2,2048
 4000f08:	10c40035 	stwio	r3,4096(r2)
}
 4000f0c:	0001883a 	nop
 4000f10:	e037883a 	mov	sp,fp
 4000f14:	dfc00117 	ldw	ra,4(sp)
 4000f18:	df000017 	ldw	fp,0(sp)
 4000f1c:	dec00204 	addi	sp,sp,8
 4000f20:	f800283a 	ret

04000f24 <vPortSysTickHandler>:
/*-----------------------------------------------------------*/

void vPortSysTickHandler( void * context)
{
 4000f24:	defffd04 	addi	sp,sp,-12
 4000f28:	dfc00215 	stw	ra,8(sp)
 4000f2c:	df000115 	stw	fp,4(sp)
 4000f30:	df000104 	addi	fp,sp,4
 4000f34:	e13fff15 	stw	r4,-4(fp)
	/* Increment the kernel tick. */
	if( xTaskIncrementTick() != pdFALSE )
 4000f38:	4004af40 	call	4004af4 <xTaskIncrementTick>
 4000f3c:	10000126 	beq	r2,zero,4000f44 <vPortSysTickHandler+0x20>
	{
        vTaskSwitchContext();
 4000f40:	4004e300 	call	4004e30 <vTaskSwitchContext>
	}
		
	/* Clear the interrupt. */
	IOWR_ALTERA_AVALON_TIMER_STATUS( SYS_CLK_BASE, ~ALTERA_AVALON_TIMER_STATUS_TO_MSK );
 4000f44:	00ffff84 	movi	r3,-2
 4000f48:	00820034 	movhi	r2,2048
 4000f4c:	10c40035 	stwio	r3,4096(r2)
}
 4000f50:	0001883a 	nop
 4000f54:	e037883a 	mov	sp,fp
 4000f58:	dfc00117 	ldw	ra,4(sp)
 4000f5c:	df000017 	ldw	fp,0(sp)
 4000f60:	dec00204 	addi	sp,sp,8
 4000f64:	f800283a 	ret

04000f68 <_alt_ic_isr_register>:
 * kernel has its scheduler started so that contexts are saved and switched 
 * correctly.
 */
int _alt_ic_isr_register(alt_u32 ic_id, alt_u32 irq, alt_isr_func isr,
  void *isr_context, void *flags)
{
 4000f68:	defff604 	addi	sp,sp,-40
 4000f6c:	dfc00915 	stw	ra,36(sp)
 4000f70:	df000815 	stw	fp,32(sp)
 4000f74:	df000804 	addi	fp,sp,32
 4000f78:	e13ffb15 	stw	r4,-20(fp)
 4000f7c:	e17ffa15 	stw	r5,-24(fp)
 4000f80:	e1bff915 	stw	r6,-28(fp)
 4000f84:	e1fff815 	stw	r7,-32(fp)
	int rc = -EINVAL;  
 4000f88:	00bffa84 	movi	r2,-22
 4000f8c:	e0bfff15 	stw	r2,-4(fp)
	alt_irq_context status;
	int id = irq;             /* IRQ interpreted as the interrupt ID. */
 4000f90:	e0bffa17 	ldw	r2,-24(fp)
 4000f94:	e0bffe15 	stw	r2,-8(fp)

	if (id < ALT_NIRQ)
 4000f98:	e0bffe17 	ldw	r2,-8(fp)
 4000f9c:	10800808 	cmpgei	r2,r2,32
 4000fa0:	1000201e 	bne	r2,zero,4001024 <_alt_ic_isr_register+0xbc>
static ALT_INLINE alt_irq_context ALT_ALWAYS_INLINE 
       alt_irq_disable_all (void)
{
  alt_irq_context context;

  NIOS2_READ_STATUS (context);
 4000fa4:	0005303a 	rdctl	r2,status
 4000fa8:	e0bffc15 	stw	r2,-16(fp)

  NIOS2_WRITE_STATUS (context & ~NIOS2_STATUS_PIE_MSK);
 4000fac:	e0fffc17 	ldw	r3,-16(fp)
 4000fb0:	00bfff84 	movi	r2,-2
 4000fb4:	1884703a 	and	r2,r3,r2
 4000fb8:	1001703a 	wrctl	status,r2
  
  return context;
 4000fbc:	e0bffc17 	ldw	r2,-16(fp)
		 * interrupts are disabled while the handler tables are updated to ensure
		 * that an interrupt doesn't occur while the tables are in an inconsistant
		 * state.
		 */
	
		status = alt_irq_disable_all ();
 4000fc0:	e0bffd15 	stw	r2,-12(fp)
	
		alt_irq[id].handler = isr;
 4000fc4:	e0bffe17 	ldw	r2,-8(fp)
 4000fc8:	100890fa 	slli	r4,r2,3
 4000fcc:	e0fff917 	ldw	r3,-28(fp)
 4000fd0:	00812074 	movhi	r2,1153
 4000fd4:	2085883a 	add	r2,r4,r2
 4000fd8:	10c0b215 	stw	r3,712(r2)
		alt_irq[id].context = isr_context;
 4000fdc:	e0bffe17 	ldw	r2,-8(fp)
 4000fe0:	100890fa 	slli	r4,r2,3
 4000fe4:	e0fff817 	ldw	r3,-32(fp)
 4000fe8:	00812074 	movhi	r2,1153
 4000fec:	2085883a 	add	r2,r4,r2
 4000ff0:	10c0b315 	stw	r3,716(r2)
	
		rc = (isr) ? alt_ic_irq_enable(ic_id, id) : alt_ic_irq_disable(ic_id, id);
 4000ff4:	e0bff917 	ldw	r2,-28(fp)
 4000ff8:	10000526 	beq	r2,zero,4001010 <_alt_ic_isr_register+0xa8>
 4000ffc:	e0bffe17 	ldw	r2,-8(fp)
 4001000:	100b883a 	mov	r5,r2
 4001004:	e13ffb17 	ldw	r4,-20(fp)
 4001008:	400a7700 	call	400a770 <alt_ic_irq_enable>
 400100c:	00000406 	br	4001020 <_alt_ic_isr_register+0xb8>
 4001010:	e0bffe17 	ldw	r2,-8(fp)
 4001014:	100b883a 	mov	r5,r2
 4001018:	e13ffb17 	ldw	r4,-20(fp)
 400101c:	400a7f80 	call	400a7f8 <alt_ic_irq_disable>
 4001020:	e0bfff15 	stw	r2,-4(fp)
	
		/* alt_irq_enable_all(status); This line is removed to prevent the interrupt from being immediately enabled. */
	}
    
	return rc; 
 4001024:	e0bfff17 	ldw	r2,-4(fp)
}
 4001028:	e037883a 	mov	sp,fp
 400102c:	dfc00117 	ldw	ra,4(sp)
 4001030:	df000017 	ldw	fp,0(sp)
 4001034:	dec00204 	addi	sp,sp,8
 4001038:	f800283a 	ret

0400103c <pvPortMalloc>:
static size_t xNextFreeByte = ( size_t ) 0;

/*-----------------------------------------------------------*/

void * pvPortMalloc( size_t xWantedSize )
{
 400103c:	defffc04 	addi	sp,sp,-16
 4001040:	dfc00315 	stw	ra,12(sp)
 4001044:	df000215 	stw	fp,8(sp)
 4001048:	df000204 	addi	fp,sp,8
 400104c:	e13ffe15 	stw	r4,-8(fp)
    void * pvReturn = NULL;
 4001050:	e03fff15 	stw	zero,-4(fp)
    static uint8_t * pucAlignedHeap = NULL;

    /* Ensure that blocks are always aligned. */
    #if ( portBYTE_ALIGNMENT != 1 )
    {
        if( xWantedSize & portBYTE_ALIGNMENT_MASK )
 4001054:	e0bffe17 	ldw	r2,-8(fp)
 4001058:	108000cc 	andi	r2,r2,3
 400105c:	10000d26 	beq	r2,zero,4001094 <pvPortMalloc+0x58>
        {
            /* Byte alignment required. Check for overflow. */
            if( ( xWantedSize + ( portBYTE_ALIGNMENT - ( xWantedSize & portBYTE_ALIGNMENT_MASK ) ) ) > xWantedSize )
 4001060:	e0fffe17 	ldw	r3,-8(fp)
 4001064:	00bfff04 	movi	r2,-4
 4001068:	1884703a 	and	r2,r3,r2
 400106c:	10800104 	addi	r2,r2,4
 4001070:	e0fffe17 	ldw	r3,-8(fp)
 4001074:	1880062e 	bgeu	r3,r2,4001090 <pvPortMalloc+0x54>
            {
                xWantedSize += ( portBYTE_ALIGNMENT - ( xWantedSize & portBYTE_ALIGNMENT_MASK ) );
 4001078:	e0fffe17 	ldw	r3,-8(fp)
 400107c:	00bfff04 	movi	r2,-4
 4001080:	1884703a 	and	r2,r3,r2
 4001084:	10800104 	addi	r2,r2,4
 4001088:	e0bffe15 	stw	r2,-8(fp)
 400108c:	00000106 	br	4001094 <pvPortMalloc+0x58>
            }
            else
            {
                xWantedSize = 0;
 4001090:	e03ffe15 	stw	zero,-8(fp)
            }
        }
    }
    #endif /* if ( portBYTE_ALIGNMENT != 1 ) */

    vTaskSuspendAll();
 4001094:	40046f00 	call	40046f0 <vTaskSuspendAll>
    {
        if( pucAlignedHeap == NULL )
 4001098:	d0a6ac17 	ldw	r2,-25936(gp)
 400109c:	1000051e 	bne	r2,zero,40010b4 <pvPortMalloc+0x78>
        {
            /* Ensure the heap starts on a correctly aligned boundary. */
            pucAlignedHeap = ( uint8_t * ) ( ( ( portPOINTER_SIZE_TYPE ) & ucHeap[ portBYTE_ALIGNMENT - 1 ] ) & ( ~( ( portPOINTER_SIZE_TYPE ) portBYTE_ALIGNMENT_MASK ) ) );
 40010a0:	00810074 	movhi	r2,1025
 40010a4:	108076c4 	addi	r2,r2,475
 40010a8:	00ffff04 	movi	r3,-4
 40010ac:	10c4703a 	and	r2,r2,r3
 40010b0:	d0a6ac15 	stw	r2,-25936(gp)
        }

        /* Check there is enough room left for the allocation and. */
        if( ( xWantedSize > 0 ) &&                                /* valid size */
 40010b4:	e0bffe17 	ldw	r2,-8(fp)
 40010b8:	10001326 	beq	r2,zero,4001108 <pvPortMalloc+0xcc>
            ( ( xNextFreeByte + xWantedSize ) < configADJUSTED_HEAP_SIZE ) &&
 40010bc:	d0e6ab17 	ldw	r3,-25940(gp)
 40010c0:	e0bffe17 	ldw	r2,-8(fp)
 40010c4:	1887883a 	add	r3,r3,r2
        if( ( xWantedSize > 0 ) &&                                /* valid size */
 40010c8:	00802034 	movhi	r2,128
 40010cc:	10bffec4 	addi	r2,r2,-5
 40010d0:	10c00d36 	bltu	r2,r3,4001108 <pvPortMalloc+0xcc>
            ( ( xNextFreeByte + xWantedSize ) > xNextFreeByte ) ) /* Check for overflow. */
 40010d4:	d0e6ab17 	ldw	r3,-25940(gp)
 40010d8:	e0bffe17 	ldw	r2,-8(fp)
 40010dc:	1885883a 	add	r2,r3,r2
 40010e0:	d0e6ab17 	ldw	r3,-25940(gp)
            ( ( xNextFreeByte + xWantedSize ) < configADJUSTED_HEAP_SIZE ) &&
 40010e4:	1880082e 	bgeu	r3,r2,4001108 <pvPortMalloc+0xcc>
        {
            /* Return the next free byte then increment the index past this
             * block. */
            pvReturn = pucAlignedHeap + xNextFreeByte;
 40010e8:	d0e6ac17 	ldw	r3,-25936(gp)
 40010ec:	d0a6ab17 	ldw	r2,-25940(gp)
 40010f0:	1885883a 	add	r2,r3,r2
 40010f4:	e0bfff15 	stw	r2,-4(fp)
            xNextFreeByte += xWantedSize;
 40010f8:	d0e6ab17 	ldw	r3,-25940(gp)
 40010fc:	e0bffe17 	ldw	r2,-8(fp)
 4001100:	1885883a 	add	r2,r3,r2
 4001104:	d0a6ab15 	stw	r2,-25940(gp)
        }

        traceMALLOC( pvReturn, xWantedSize );
    }
    ( void ) xTaskResumeAll();
 4001108:	400471c0 	call	400471c <xTaskResumeAll>
            vApplicationMallocFailedHook();
        }
    }
    #endif

    return pvReturn;
 400110c:	e0bfff17 	ldw	r2,-4(fp)
}
 4001110:	e037883a 	mov	sp,fp
 4001114:	dfc00117 	ldw	ra,4(sp)
 4001118:	df000017 	ldw	fp,0(sp)
 400111c:	dec00204 	addi	sp,sp,8
 4001120:	f800283a 	ret

04001124 <vPortFree>:
/*-----------------------------------------------------------*/

void vPortFree( void * pv )
{
 4001124:	defffe04 	addi	sp,sp,-8
 4001128:	df000115 	stw	fp,4(sp)
 400112c:	df000104 	addi	fp,sp,4
 4001130:	e13fff15 	stw	r4,-4(fp)
     * https://www.FreeRTOS.org for more information. */
    ( void ) pv;

    /* Force an assert as it is invalid to call this function. */
    configASSERT( pv == NULL );
}
 4001134:	0001883a 	nop
 4001138:	e037883a 	mov	sp,fp
 400113c:	df000017 	ldw	fp,0(sp)
 4001140:	dec00104 	addi	sp,sp,4
 4001144:	f800283a 	ret

04001148 <vPortInitialiseBlocks>:
/*-----------------------------------------------------------*/

void vPortInitialiseBlocks( void )
{
 4001148:	deffff04 	addi	sp,sp,-4
 400114c:	df000015 	stw	fp,0(sp)
 4001150:	d839883a 	mov	fp,sp
    /* Only required when static memory is not cleared. */
    xNextFreeByte = ( size_t ) 0;
 4001154:	d026ab15 	stw	zero,-25940(gp)
}
 4001158:	0001883a 	nop
 400115c:	e037883a 	mov	sp,fp
 4001160:	df000017 	ldw	fp,0(sp)
 4001164:	dec00104 	addi	sp,sp,4
 4001168:	f800283a 	ret

0400116c <xPortGetFreeHeapSize>:
/*-----------------------------------------------------------*/

size_t xPortGetFreeHeapSize( void )
{
 400116c:	deffff04 	addi	sp,sp,-4
 4001170:	df000015 	stw	fp,0(sp)
 4001174:	d839883a 	mov	fp,sp
    return( configADJUSTED_HEAP_SIZE - xNextFreeByte );
 4001178:	d0e6ab17 	ldw	r3,-25940(gp)
 400117c:	00802034 	movhi	r2,128
 4001180:	10bfff04 	addi	r2,r2,-4
 4001184:	10c5c83a 	sub	r2,r2,r3
}
 4001188:	e037883a 	mov	sp,fp
 400118c:	df000017 	ldw	fp,0(sp)
 4001190:	dec00104 	addi	sp,sp,4
 4001194:	f800283a 	ret

04001198 <xQueueGenericReset>:
    }
/*-----------------------------------------------------------*/

BaseType_t xQueueGenericReset( QueueHandle_t xQueue,
                               BaseType_t xNewQueue )
{
 4001198:	defff404 	addi	sp,sp,-48
 400119c:	dfc00b15 	stw	ra,44(sp)
 40011a0:	df000a15 	stw	fp,40(sp)
 40011a4:	dd400915 	stw	r21,36(sp)
 40011a8:	dd000815 	stw	r20,32(sp)
 40011ac:	dcc00715 	stw	r19,28(sp)
 40011b0:	dc800615 	stw	r18,24(sp)
 40011b4:	dc400515 	stw	r17,20(sp)
 40011b8:	dc000415 	stw	r16,16(sp)
 40011bc:	df000a04 	addi	fp,sp,40
 40011c0:	e13ff715 	stw	r4,-36(fp)
 40011c4:	e17ff615 	stw	r5,-40(fp)
    BaseType_t xReturn = pdPASS;
 40011c8:	00800044 	movi	r2,1
 40011cc:	e0bff915 	stw	r2,-28(fp)
    Queue_t * const pxQueue = xQueue;
 40011d0:	e0bff717 	ldw	r2,-36(fp)
 40011d4:	e0bff815 	stw	r2,-32(fp)

    configASSERT( pxQueue );

    if( ( pxQueue != NULL ) &&
 40011d8:	e0bff817 	ldw	r2,-32(fp)
 40011dc:	10007126 	beq	r2,zero,40013a4 <xQueueGenericReset+0x20c>
        ( pxQueue->uxLength >= 1U ) &&
 40011e0:	e0bff817 	ldw	r2,-32(fp)
 40011e4:	10800f17 	ldw	r2,60(r2)
    if( ( pxQueue != NULL ) &&
 40011e8:	10006e26 	beq	r2,zero,40013a4 <xQueueGenericReset+0x20c>
        /* Check for multiplication overflow. */
        ( ( SIZE_MAX / pxQueue->uxLength ) >= pxQueue->uxItemSize ) )
 40011ec:	e0bff817 	ldw	r2,-32(fp)
 40011f0:	14001017 	ldw	r16,64(r2)
 40011f4:	e0bff817 	ldw	r2,-32(fp)
 40011f8:	14400f17 	ldw	r17,60(r2)
 40011fc:	0025883a 	mov	r18,zero
 4001200:	8008d43a 	srli	r4,r16,16
 4001204:	8804d43a 	srli	r2,r17,16
 4001208:	20ffffcc 	andi	r3,r4,65535
 400120c:	18000b1e 	bne	r3,zero,400123c <xQueueGenericReset+0xa4>
 4001210:	10ffffcc 	andi	r3,r2,65535
 4001214:	1800061e 	bne	r3,zero,4001230 <xQueueGenericReset+0x98>
 4001218:	80bfffcc 	andi	r2,r16,65535
 400121c:	88ffffcc 	andi	r3,r17,65535
 4001220:	180b883a 	mov	r5,r3
 4001224:	1009883a 	mov	r4,r2
 4001228:	40078580 	call	4007858 <__mulsi3>
 400122c:	00001f06 	br	40012ac <xQueueGenericReset+0x114>
 4001230:	1029883a 	mov	r20,r2
 4001234:	802b883a 	mov	r21,r16
 4001238:	00000406 	br	400124c <xQueueGenericReset+0xb4>
 400123c:	10bfffcc 	andi	r2,r2,65535
 4001240:	1000131e 	bne	r2,zero,4001290 <xQueueGenericReset+0xf8>
 4001244:	2029883a 	mov	r20,r4
 4001248:	882b883a 	mov	r21,r17
 400124c:	80bfffcc 	andi	r2,r16,65535
 4001250:	88ffffcc 	andi	r3,r17,65535
 4001254:	180b883a 	mov	r5,r3
 4001258:	1009883a 	mov	r4,r2
 400125c:	40078580 	call	4007858 <__mulsi3>
 4001260:	1027883a 	mov	r19,r2
 4001264:	a8bfffcc 	andi	r2,r21,65535
 4001268:	a0ffffcc 	andi	r3,r20,65535
 400126c:	180b883a 	mov	r5,r3
 4001270:	1009883a 	mov	r4,r2
 4001274:	40078580 	call	4007858 <__mulsi3>
 4001278:	9806d43a 	srli	r3,r19,16
 400127c:	10c5883a 	add	r2,r2,r3
 4001280:	1005d43a 	srai	r2,r2,16
 4001284:	10bfffcc 	andi	r2,r2,65535
 4001288:	1000041e 	bne	r2,zero,400129c <xQueueGenericReset+0x104>
 400128c:	00000706 	br	40012ac <xQueueGenericReset+0x114>
 4001290:	880b883a 	mov	r5,r17
 4001294:	8009883a 	mov	r4,r16
 4001298:	40078580 	call	4007858 <__mulsi3>
 400129c:	880b883a 	mov	r5,r17
 40012a0:	8009883a 	mov	r4,r16
 40012a4:	40078580 	call	4007858 <__mulsi3>
 40012a8:	04800044 	movi	r18,1
 40012ac:	9005883a 	mov	r2,r18
        ( pxQueue->uxLength >= 1U ) &&
 40012b0:	10003c1e 	bne	r2,zero,40013a4 <xQueueGenericReset+0x20c>
    {
        taskENTER_CRITICAL();
 40012b4:	4005f7c0 	call	4005f7c <vTaskEnterCritical>
        {
            pxQueue->u.xQueue.pcTail = pxQueue->pcHead + ( pxQueue->uxLength * pxQueue->uxItemSize ); /*lint !e9016 Pointer arithmetic allowed on char types, especially when it assists conveying intent. */
 40012b8:	e0bff817 	ldw	r2,-32(fp)
 40012bc:	14000017 	ldw	r16,0(r2)
 40012c0:	e0bff817 	ldw	r2,-32(fp)
 40012c4:	10c00f17 	ldw	r3,60(r2)
 40012c8:	e0bff817 	ldw	r2,-32(fp)
 40012cc:	10801017 	ldw	r2,64(r2)
 40012d0:	100b883a 	mov	r5,r2
 40012d4:	1809883a 	mov	r4,r3
 40012d8:	40078580 	call	4007858 <__mulsi3>
 40012dc:	8087883a 	add	r3,r16,r2
 40012e0:	e0bff817 	ldw	r2,-32(fp)
 40012e4:	10c00215 	stw	r3,8(r2)
            pxQueue->uxMessagesWaiting = ( UBaseType_t ) 0U;
 40012e8:	e0bff817 	ldw	r2,-32(fp)
 40012ec:	10000e15 	stw	zero,56(r2)
            pxQueue->pcWriteTo = pxQueue->pcHead;
 40012f0:	e0bff817 	ldw	r2,-32(fp)
 40012f4:	10c00017 	ldw	r3,0(r2)
 40012f8:	e0bff817 	ldw	r2,-32(fp)
 40012fc:	10c00115 	stw	r3,4(r2)
            pxQueue->u.xQueue.pcReadFrom = pxQueue->pcHead + ( ( pxQueue->uxLength - 1U ) * pxQueue->uxItemSize ); /*lint !e9016 Pointer arithmetic allowed on char types, especially when it assists conveying intent. */
 4001300:	e0bff817 	ldw	r2,-32(fp)
 4001304:	14000017 	ldw	r16,0(r2)
 4001308:	e0bff817 	ldw	r2,-32(fp)
 400130c:	10800f17 	ldw	r2,60(r2)
 4001310:	10ffffc4 	addi	r3,r2,-1
 4001314:	e0bff817 	ldw	r2,-32(fp)
 4001318:	10801017 	ldw	r2,64(r2)
 400131c:	100b883a 	mov	r5,r2
 4001320:	1809883a 	mov	r4,r3
 4001324:	40078580 	call	4007858 <__mulsi3>
 4001328:	8087883a 	add	r3,r16,r2
 400132c:	e0bff817 	ldw	r2,-32(fp)
 4001330:	10c00315 	stw	r3,12(r2)
            pxQueue->cRxLock = queueUNLOCKED;
 4001334:	e0bff817 	ldw	r2,-32(fp)
 4001338:	00ffffc4 	movi	r3,-1
 400133c:	10c01105 	stb	r3,68(r2)
            pxQueue->cTxLock = queueUNLOCKED;
 4001340:	e0bff817 	ldw	r2,-32(fp)
 4001344:	00ffffc4 	movi	r3,-1
 4001348:	10c01145 	stb	r3,69(r2)

            if( xNewQueue == pdFALSE )
 400134c:	e0bff617 	ldw	r2,-40(fp)
 4001350:	10000a1e 	bne	r2,zero,400137c <xQueueGenericReset+0x1e4>
                /* If there are tasks blocked waiting to read from the queue, then
                 * the tasks will remain blocked as after this function exits the queue
                 * will still be empty.  If there are tasks blocked waiting to write to
                 * the queue, then one should be unblocked as after this function exits
                 * it will be possible to write to it. */
                if( listLIST_IS_EMPTY( &( pxQueue->xTasksWaitingToSend ) ) == pdFALSE )
 4001354:	e0bff817 	ldw	r2,-32(fp)
 4001358:	10800417 	ldw	r2,16(r2)
 400135c:	10000f26 	beq	r2,zero,400139c <xQueueGenericReset+0x204>
                {
                    if( xTaskRemoveFromEventList( &( pxQueue->xTasksWaitingToSend ) ) != pdFALSE )
 4001360:	e0bff817 	ldw	r2,-32(fp)
 4001364:	10800404 	addi	r2,r2,16
 4001368:	1009883a 	mov	r4,r2
 400136c:	400502c0 	call	400502c <xTaskRemoveFromEventList>
 4001370:	10000a26 	beq	r2,zero,400139c <xQueueGenericReset+0x204>
                    {
                        queueYIELD_IF_USING_PREEMPTION();
 4001374:	003b683a 	trap	0
 4001378:	00000806 	br	400139c <xQueueGenericReset+0x204>
                }
            }
            else
            {
                /* Ensure the event queues start in the correct state. */
                vListInitialise( &( pxQueue->xTasksWaitingToSend ) );
 400137c:	e0bff817 	ldw	r2,-32(fp)
 4001380:	10800404 	addi	r2,r2,16
 4001384:	1009883a 	mov	r4,r2
 4001388:	4000aa00 	call	4000aa0 <vListInitialise>
                vListInitialise( &( pxQueue->xTasksWaitingToReceive ) );
 400138c:	e0bff817 	ldw	r2,-32(fp)
 4001390:	10800904 	addi	r2,r2,36
 4001394:	1009883a 	mov	r4,r2
 4001398:	4000aa00 	call	4000aa0 <vListInitialise>
            }
        }
        taskEXIT_CRITICAL();
 400139c:	4005fd00 	call	4005fd0 <vTaskExitCritical>
 40013a0:	00000106 	br	40013a8 <xQueueGenericReset+0x210>
    }
    else
    {
        xReturn = pdFAIL;
 40013a4:	e03ff915 	stw	zero,-28(fp)

    configASSERT( xReturn != pdFAIL );

    /* A value is returned for calling semantic consistency with previous
     * versions. */
    return xReturn;
 40013a8:	e0bff917 	ldw	r2,-28(fp)
}
 40013ac:	e6fffa04 	addi	sp,fp,-24
 40013b0:	dfc00717 	ldw	ra,28(sp)
 40013b4:	df000617 	ldw	fp,24(sp)
 40013b8:	dd400517 	ldw	r21,20(sp)
 40013bc:	dd000417 	ldw	r20,16(sp)
 40013c0:	dcc00317 	ldw	r19,12(sp)
 40013c4:	dc800217 	ldw	r18,8(sp)
 40013c8:	dc400117 	ldw	r17,4(sp)
 40013cc:	dc000017 	ldw	r16,0(sp)
 40013d0:	dec00804 	addi	sp,sp,32
 40013d4:	f800283a 	ret

040013d8 <xQueueGenericCreate>:
#if ( configSUPPORT_DYNAMIC_ALLOCATION == 1 )

    QueueHandle_t xQueueGenericCreate( const UBaseType_t uxQueueLength,
                                       const UBaseType_t uxItemSize,
                                       const uint8_t ucQueueType )
    {
 40013d8:	defff304 	addi	sp,sp,-52
 40013dc:	dfc00c15 	stw	ra,48(sp)
 40013e0:	df000b15 	stw	fp,44(sp)
 40013e4:	dcc00a15 	stw	r19,40(sp)
 40013e8:	dc800915 	stw	r18,36(sp)
 40013ec:	dc400815 	stw	r17,32(sp)
 40013f0:	dc000715 	stw	r16,28(sp)
 40013f4:	df000b04 	addi	fp,sp,44
 40013f8:	e13ff815 	stw	r4,-32(fp)
 40013fc:	e17ff715 	stw	r5,-36(fp)
 4001400:	3005883a 	mov	r2,r6
 4001404:	e0bff605 	stb	r2,-40(fp)
        Queue_t * pxNewQueue = NULL;
 4001408:	e03ffb15 	stw	zero,-20(fp)
        size_t xQueueSizeInBytes;
        uint8_t * pucQueueStorage;

        if( ( uxQueueLength > ( UBaseType_t ) 0 ) &&
 400140c:	e0bff817 	ldw	r2,-32(fp)
 4001410:	10005026 	beq	r2,zero,4001554 <xQueueGenericCreate+0x17c>
            /* Check for multiplication overflow. */
            ( ( SIZE_MAX / uxQueueLength ) >= uxItemSize ) &&
 4001414:	0021883a 	mov	r16,zero
 4001418:	e0bff717 	ldw	r2,-36(fp)
 400141c:	100cd43a 	srli	r6,r2,16
 4001420:	e0fff717 	ldw	r3,-36(fp)
 4001424:	e0bff817 	ldw	r2,-32(fp)
 4001428:	1008d43a 	srli	r4,r2,16
 400142c:	e0bff817 	ldw	r2,-32(fp)
 4001430:	317fffcc 	andi	r5,r6,65535
 4001434:	28000b1e 	bne	r5,zero,4001464 <xQueueGenericCreate+0x8c>
 4001438:	217fffcc 	andi	r5,r4,65535
 400143c:	2800061e 	bne	r5,zero,4001458 <xQueueGenericCreate+0x80>
 4001440:	18ffffcc 	andi	r3,r3,65535
 4001444:	10bfffcc 	andi	r2,r2,65535
 4001448:	100b883a 	mov	r5,r2
 400144c:	1809883a 	mov	r4,r3
 4001450:	40078580 	call	4007858 <__mulsi3>
 4001454:	00001f06 	br	40014d4 <xQueueGenericCreate+0xfc>
 4001458:	2025883a 	mov	r18,r4
 400145c:	1827883a 	mov	r19,r3
 4001460:	00000406 	br	4001474 <xQueueGenericCreate+0x9c>
 4001464:	213fffcc 	andi	r4,r4,65535
 4001468:	2000131e 	bne	r4,zero,40014b8 <xQueueGenericCreate+0xe0>
 400146c:	3025883a 	mov	r18,r6
 4001470:	1027883a 	mov	r19,r2
 4001474:	18ffffcc 	andi	r3,r3,65535
 4001478:	10bfffcc 	andi	r2,r2,65535
 400147c:	100b883a 	mov	r5,r2
 4001480:	1809883a 	mov	r4,r3
 4001484:	40078580 	call	4007858 <__mulsi3>
 4001488:	1023883a 	mov	r17,r2
 400148c:	98bfffcc 	andi	r2,r19,65535
 4001490:	90ffffcc 	andi	r3,r18,65535
 4001494:	180b883a 	mov	r5,r3
 4001498:	1009883a 	mov	r4,r2
 400149c:	40078580 	call	4007858 <__mulsi3>
 40014a0:	8806d43a 	srli	r3,r17,16
 40014a4:	10c5883a 	add	r2,r2,r3
 40014a8:	1005d43a 	srai	r2,r2,16
 40014ac:	10bfffcc 	andi	r2,r2,65535
 40014b0:	1000041e 	bne	r2,zero,40014c4 <xQueueGenericCreate+0xec>
 40014b4:	00000706 	br	40014d4 <xQueueGenericCreate+0xfc>
 40014b8:	e17ff817 	ldw	r5,-32(fp)
 40014bc:	e13ff717 	ldw	r4,-36(fp)
 40014c0:	40078580 	call	4007858 <__mulsi3>
 40014c4:	e17ff817 	ldw	r5,-32(fp)
 40014c8:	e13ff717 	ldw	r4,-36(fp)
 40014cc:	40078580 	call	4007858 <__mulsi3>
 40014d0:	04000044 	movi	r16,1
 40014d4:	8005883a 	mov	r2,r16
        if( ( uxQueueLength > ( UBaseType_t ) 0 ) &&
 40014d8:	10001e1e 	bne	r2,zero,4001554 <xQueueGenericCreate+0x17c>
            /* Check for addition overflow. */
            ( ( SIZE_MAX - sizeof( Queue_t ) ) >= ( uxQueueLength * uxItemSize ) ) )
 40014dc:	e17ff717 	ldw	r5,-36(fp)
 40014e0:	e13ff817 	ldw	r4,-32(fp)
 40014e4:	40078580 	call	4007858 <__mulsi3>
 40014e8:	1007883a 	mov	r3,r2
            ( ( SIZE_MAX / uxQueueLength ) >= uxItemSize ) &&
 40014ec:	00bfedc4 	movi	r2,-73
 40014f0:	10c01836 	bltu	r2,r3,4001554 <xQueueGenericCreate+0x17c>
        {
            /* Allocate enough space to hold the maximum number of items that
             * can be in the queue at any time.  It is valid for uxItemSize to be
             * zero in the case the queue is used as a semaphore. */
            xQueueSizeInBytes = ( size_t ) ( uxQueueLength * uxItemSize ); /*lint !e961 MISRA exception as the casts are only redundant for some ports. */
 40014f4:	e17ff717 	ldw	r5,-36(fp)
 40014f8:	e13ff817 	ldw	r4,-32(fp)
 40014fc:	40078580 	call	4007858 <__mulsi3>
 4001500:	e0bffa15 	stw	r2,-24(fp)
             * alignment requirements of the Queue_t structure - which in this case
             * is an int8_t *.  Therefore, whenever the stack alignment requirements
             * are greater than or equal to the pointer to char requirements the cast
             * is safe.  In other cases alignment requirements are not strict (one or
             * two bytes). */
            pxNewQueue = ( Queue_t * ) pvPortMalloc( sizeof( Queue_t ) + xQueueSizeInBytes ); /*lint !e9087 !e9079 see comment above. */
 4001504:	e0bffa17 	ldw	r2,-24(fp)
 4001508:	10801204 	addi	r2,r2,72
 400150c:	1009883a 	mov	r4,r2
 4001510:	400103c0 	call	400103c <pvPortMalloc>
 4001514:	e0bffb15 	stw	r2,-20(fp)

            if( pxNewQueue != NULL )
 4001518:	e0bffb17 	ldw	r2,-20(fp)
 400151c:	10000d26 	beq	r2,zero,4001554 <xQueueGenericCreate+0x17c>
            {
                /* Jump past the queue structure to find the location of the queue
                 * storage area. */
                pucQueueStorage = ( uint8_t * ) pxNewQueue;
 4001520:	e0bffb17 	ldw	r2,-20(fp)
 4001524:	e0bff915 	stw	r2,-28(fp)
                pucQueueStorage += sizeof( Queue_t ); /*lint !e9016 Pointer arithmetic allowed on char types, especially when it assists conveying intent. */
 4001528:	e0bff917 	ldw	r2,-28(fp)
 400152c:	10801204 	addi	r2,r2,72
 4001530:	e0bff915 	stw	r2,-28(fp)
                     * deleted. */
                    pxNewQueue->ucStaticallyAllocated = pdFALSE;
                }
                #endif /* configSUPPORT_STATIC_ALLOCATION */

                prvInitialiseNewQueue( uxQueueLength, uxItemSize, pucQueueStorage, ucQueueType, pxNewQueue );
 4001534:	e0fff603 	ldbu	r3,-40(fp)
 4001538:	e0bffb17 	ldw	r2,-20(fp)
 400153c:	d8800015 	stw	r2,0(sp)
 4001540:	180f883a 	mov	r7,r3
 4001544:	e1bff917 	ldw	r6,-28(fp)
 4001548:	e17ff717 	ldw	r5,-36(fp)
 400154c:	e13ff817 	ldw	r4,-32(fp)
 4001550:	400157c0 	call	400157c <prvInitialiseNewQueue>
        {
            configASSERT( pxNewQueue );
            mtCOVERAGE_TEST_MARKER();
        }

        return pxNewQueue;
 4001554:	e0bffb17 	ldw	r2,-20(fp)
    }
 4001558:	e6fffc04 	addi	sp,fp,-16
 400155c:	dfc00517 	ldw	ra,20(sp)
 4001560:	df000417 	ldw	fp,16(sp)
 4001564:	dcc00317 	ldw	r19,12(sp)
 4001568:	dc800217 	ldw	r18,8(sp)
 400156c:	dc400117 	ldw	r17,4(sp)
 4001570:	dc000017 	ldw	r16,0(sp)
 4001574:	dec00604 	addi	sp,sp,24
 4001578:	f800283a 	ret

0400157c <prvInitialiseNewQueue>:
static void prvInitialiseNewQueue( const UBaseType_t uxQueueLength,
                                   const UBaseType_t uxItemSize,
                                   uint8_t * pucQueueStorage,
                                   const uint8_t ucQueueType,
                                   Queue_t * pxNewQueue )
{
 400157c:	defffa04 	addi	sp,sp,-24
 4001580:	dfc00515 	stw	ra,20(sp)
 4001584:	df000415 	stw	fp,16(sp)
 4001588:	df000404 	addi	fp,sp,16
 400158c:	e13fff15 	stw	r4,-4(fp)
 4001590:	e17ffe15 	stw	r5,-8(fp)
 4001594:	e1bffd15 	stw	r6,-12(fp)
 4001598:	3805883a 	mov	r2,r7
 400159c:	e0bffc05 	stb	r2,-16(fp)
    /* Remove compiler warnings about unused parameters should
     * configUSE_TRACE_FACILITY not be set to 1. */
    ( void ) ucQueueType;

    if( uxItemSize == ( UBaseType_t ) 0 )
 40015a0:	e0bffe17 	ldw	r2,-8(fp)
 40015a4:	1000041e 	bne	r2,zero,40015b8 <prvInitialiseNewQueue+0x3c>
    {
        /* No RAM was allocated for the queue storage area, but PC head cannot
         * be set to NULL because NULL is used as a key to say the queue is used as
         * a mutex.  Therefore just set pcHead to point to the queue as a benign
         * value that is known to be within the memory map. */
        pxNewQueue->pcHead = ( int8_t * ) pxNewQueue;
 40015a8:	e0800217 	ldw	r2,8(fp)
 40015ac:	e0c00217 	ldw	r3,8(fp)
 40015b0:	10c00015 	stw	r3,0(r2)
 40015b4:	00000306 	br	40015c4 <prvInitialiseNewQueue+0x48>
    }
    else
    {
        /* Set the head to the start of the queue storage area. */
        pxNewQueue->pcHead = ( int8_t * ) pucQueueStorage;
 40015b8:	e0800217 	ldw	r2,8(fp)
 40015bc:	e0fffd17 	ldw	r3,-12(fp)
 40015c0:	10c00015 	stw	r3,0(r2)
    }

    /* Initialise the queue members as described where the queue type is
     * defined. */
    pxNewQueue->uxLength = uxQueueLength;
 40015c4:	e0800217 	ldw	r2,8(fp)
 40015c8:	e0ffff17 	ldw	r3,-4(fp)
 40015cc:	10c00f15 	stw	r3,60(r2)
    pxNewQueue->uxItemSize = uxItemSize;
 40015d0:	e0800217 	ldw	r2,8(fp)
 40015d4:	e0fffe17 	ldw	r3,-8(fp)
 40015d8:	10c01015 	stw	r3,64(r2)
    ( void ) xQueueGenericReset( pxNewQueue, pdTRUE );
 40015dc:	01400044 	movi	r5,1
 40015e0:	e1000217 	ldw	r4,8(fp)
 40015e4:	40011980 	call	4001198 <xQueueGenericReset>
        pxNewQueue->pxQueueSetContainer = NULL;
    }
    #endif /* configUSE_QUEUE_SETS */

    traceQUEUE_CREATE( pxNewQueue );
}
 40015e8:	0001883a 	nop
 40015ec:	e037883a 	mov	sp,fp
 40015f0:	dfc00117 	ldw	ra,4(sp)
 40015f4:	df000017 	ldw	fp,0(sp)
 40015f8:	dec00204 	addi	sp,sp,8
 40015fc:	f800283a 	ret

04001600 <prvInitialiseMutex>:
/*-----------------------------------------------------------*/

#if ( configUSE_MUTEXES == 1 )

    static void prvInitialiseMutex( Queue_t * pxNewQueue )
    {
 4001600:	defffd04 	addi	sp,sp,-12
 4001604:	dfc00215 	stw	ra,8(sp)
 4001608:	df000115 	stw	fp,4(sp)
 400160c:	df000104 	addi	fp,sp,4
 4001610:	e13fff15 	stw	r4,-4(fp)
        if( pxNewQueue != NULL )
 4001614:	e0bfff17 	ldw	r2,-4(fp)
 4001618:	10000b26 	beq	r2,zero,4001648 <prvInitialiseMutex+0x48>
        {
            /* The queue create function will set all the queue structure members
            * correctly for a generic queue, but this function is creating a
            * mutex.  Overwrite those members that need to be set differently -
            * in particular the information required for priority inheritance. */
            pxNewQueue->u.xSemaphore.xMutexHolder = NULL;
 400161c:	e0bfff17 	ldw	r2,-4(fp)
 4001620:	10000215 	stw	zero,8(r2)
            pxNewQueue->uxQueueType = queueQUEUE_IS_MUTEX;
 4001624:	e0bfff17 	ldw	r2,-4(fp)
 4001628:	10000015 	stw	zero,0(r2)

            /* In case this is a recursive mutex. */
            pxNewQueue->u.xSemaphore.uxRecursiveCallCount = 0;
 400162c:	e0bfff17 	ldw	r2,-4(fp)
 4001630:	10000315 	stw	zero,12(r2)

            traceCREATE_MUTEX( pxNewQueue );

            /* Start with the semaphore in the expected state. */
            ( void ) xQueueGenericSend( pxNewQueue, NULL, ( TickType_t ) 0U, queueSEND_TO_BACK );
 4001634:	000f883a 	mov	r7,zero
 4001638:	000d883a 	mov	r6,zero
 400163c:	000b883a 	mov	r5,zero
 4001640:	e13fff17 	ldw	r4,-4(fp)
 4001644:	40018580 	call	4001858 <xQueueGenericSend>
        }
        else
        {
            traceCREATE_MUTEX_FAILED();
        }
    }
 4001648:	0001883a 	nop
 400164c:	e037883a 	mov	sp,fp
 4001650:	dfc00117 	ldw	ra,4(sp)
 4001654:	df000017 	ldw	fp,0(sp)
 4001658:	dec00204 	addi	sp,sp,8
 400165c:	f800283a 	ret

04001660 <xQueueCreateMutex>:
/*-----------------------------------------------------------*/

#if ( ( configUSE_MUTEXES == 1 ) && ( configSUPPORT_DYNAMIC_ALLOCATION == 1 ) )

    QueueHandle_t xQueueCreateMutex( const uint8_t ucQueueType )
    {
 4001660:	defffa04 	addi	sp,sp,-24
 4001664:	dfc00515 	stw	ra,20(sp)
 4001668:	df000415 	stw	fp,16(sp)
 400166c:	df000404 	addi	fp,sp,16
 4001670:	2005883a 	mov	r2,r4
 4001674:	e0bffc05 	stb	r2,-16(fp)
        QueueHandle_t xNewQueue;
        const UBaseType_t uxMutexLength = ( UBaseType_t ) 1, uxMutexSize = ( UBaseType_t ) 0;
 4001678:	00800044 	movi	r2,1
 400167c:	e0bfff15 	stw	r2,-4(fp)
 4001680:	e03ffe15 	stw	zero,-8(fp)

        xNewQueue = xQueueGenericCreate( uxMutexLength, uxMutexSize, ucQueueType );
 4001684:	e0bffc03 	ldbu	r2,-16(fp)
 4001688:	100d883a 	mov	r6,r2
 400168c:	e17ffe17 	ldw	r5,-8(fp)
 4001690:	e13fff17 	ldw	r4,-4(fp)
 4001694:	40013d80 	call	40013d8 <xQueueGenericCreate>
 4001698:	e0bffd15 	stw	r2,-12(fp)
        prvInitialiseMutex( ( Queue_t * ) xNewQueue );
 400169c:	e13ffd17 	ldw	r4,-12(fp)
 40016a0:	40016000 	call	4001600 <prvInitialiseMutex>

        return xNewQueue;
 40016a4:	e0bffd17 	ldw	r2,-12(fp)
    }
 40016a8:	e037883a 	mov	sp,fp
 40016ac:	dfc00117 	ldw	ra,4(sp)
 40016b0:	df000017 	ldw	fp,0(sp)
 40016b4:	dec00204 	addi	sp,sp,8
 40016b8:	f800283a 	ret

040016bc <xQueueGiveMutexRecursive>:
/*-----------------------------------------------------------*/

#if ( configUSE_RECURSIVE_MUTEXES == 1 )

    BaseType_t xQueueGiveMutexRecursive( QueueHandle_t xMutex )
    {
 40016bc:	defffa04 	addi	sp,sp,-24
 40016c0:	dfc00515 	stw	ra,20(sp)
 40016c4:	df000415 	stw	fp,16(sp)
 40016c8:	dc000315 	stw	r16,12(sp)
 40016cc:	df000404 	addi	fp,sp,16
 40016d0:	e13ffc15 	stw	r4,-16(fp)
        BaseType_t xReturn;
        Queue_t * const pxMutex = ( Queue_t * ) xMutex;
 40016d4:	e0bffc17 	ldw	r2,-16(fp)
 40016d8:	e0bffd15 	stw	r2,-12(fp)
         * change outside of this task.  If this task does not hold the mutex then
         * pxMutexHolder can never coincidentally equal the tasks handle, and as
         * this is the only condition we are interested in it does not matter if
         * pxMutexHolder is accessed simultaneously by another task.  Therefore no
         * mutual exclusion is required to test the pxMutexHolder variable. */
        if( pxMutex->u.xSemaphore.xMutexHolder == xTaskGetCurrentTaskHandle() )
 40016dc:	e0bffd17 	ldw	r2,-12(fp)
 40016e0:	14000217 	ldw	r16,8(r2)
 40016e4:	40059900 	call	4005990 <xTaskGetCurrentTaskHandle>
 40016e8:	8080101e 	bne	r16,r2,400172c <xQueueGiveMutexRecursive+0x70>
            /* uxRecursiveCallCount cannot be zero if xMutexHolder is equal to
             * the task handle, therefore no underflow check is required.  Also,
             * uxRecursiveCallCount is only modified by the mutex holder, and as
             * there can only be one, no mutual exclusion is required to modify the
             * uxRecursiveCallCount member. */
            ( pxMutex->u.xSemaphore.uxRecursiveCallCount )--;
 40016ec:	e0bffd17 	ldw	r2,-12(fp)
 40016f0:	10800317 	ldw	r2,12(r2)
 40016f4:	10ffffc4 	addi	r3,r2,-1
 40016f8:	e0bffd17 	ldw	r2,-12(fp)
 40016fc:	10c00315 	stw	r3,12(r2)

            /* Has the recursive call count unwound to 0? */
            if( pxMutex->u.xSemaphore.uxRecursiveCallCount == ( UBaseType_t ) 0 )
 4001700:	e0bffd17 	ldw	r2,-12(fp)
 4001704:	10800317 	ldw	r2,12(r2)
 4001708:	1000051e 	bne	r2,zero,4001720 <xQueueGiveMutexRecursive+0x64>
            {
                /* Return the mutex.  This will automatically unblock any other
                 * task that might be waiting to access the mutex. */
                ( void ) xQueueGenericSend( pxMutex, NULL, queueMUTEX_GIVE_BLOCK_TIME, queueSEND_TO_BACK );
 400170c:	000f883a 	mov	r7,zero
 4001710:	000d883a 	mov	r6,zero
 4001714:	000b883a 	mov	r5,zero
 4001718:	e13ffd17 	ldw	r4,-12(fp)
 400171c:	40018580 	call	4001858 <xQueueGenericSend>
            else
            {
                mtCOVERAGE_TEST_MARKER();
            }

            xReturn = pdPASS;
 4001720:	00800044 	movi	r2,1
 4001724:	e0bffe15 	stw	r2,-8(fp)
 4001728:	00000106 	br	4001730 <xQueueGiveMutexRecursive+0x74>
        }
        else
        {
            /* The mutex cannot be given because the calling task is not the
             * holder. */
            xReturn = pdFAIL;
 400172c:	e03ffe15 	stw	zero,-8(fp)

            traceGIVE_MUTEX_RECURSIVE_FAILED( pxMutex );
        }

        return xReturn;
 4001730:	e0bffe17 	ldw	r2,-8(fp)
    }
 4001734:	e6ffff04 	addi	sp,fp,-4
 4001738:	dfc00217 	ldw	ra,8(sp)
 400173c:	df000117 	ldw	fp,4(sp)
 4001740:	dc000017 	ldw	r16,0(sp)
 4001744:	dec00304 	addi	sp,sp,12
 4001748:	f800283a 	ret

0400174c <xQueueTakeMutexRecursive>:

#if ( configUSE_RECURSIVE_MUTEXES == 1 )

    BaseType_t xQueueTakeMutexRecursive( QueueHandle_t xMutex,
                                         TickType_t xTicksToWait )
    {
 400174c:	defff904 	addi	sp,sp,-28
 4001750:	dfc00615 	stw	ra,24(sp)
 4001754:	df000515 	stw	fp,20(sp)
 4001758:	dc000415 	stw	r16,16(sp)
 400175c:	df000504 	addi	fp,sp,20
 4001760:	e13ffc15 	stw	r4,-16(fp)
 4001764:	e17ffb15 	stw	r5,-20(fp)
        BaseType_t xReturn;
        Queue_t * const pxMutex = ( Queue_t * ) xMutex;
 4001768:	e0bffc17 	ldw	r2,-16(fp)
 400176c:	e0bffd15 	stw	r2,-12(fp)
        /* Comments regarding mutual exclusion as per those within
         * xQueueGiveMutexRecursive(). */

        traceTAKE_MUTEX_RECURSIVE( pxMutex );

        if( pxMutex->u.xSemaphore.xMutexHolder == xTaskGetCurrentTaskHandle() )
 4001770:	e0bffd17 	ldw	r2,-12(fp)
 4001774:	14000217 	ldw	r16,8(r2)
 4001778:	40059900 	call	4005990 <xTaskGetCurrentTaskHandle>
 400177c:	8080081e 	bne	r16,r2,40017a0 <xQueueTakeMutexRecursive+0x54>
        {
            ( pxMutex->u.xSemaphore.uxRecursiveCallCount )++;
 4001780:	e0bffd17 	ldw	r2,-12(fp)
 4001784:	10800317 	ldw	r2,12(r2)
 4001788:	10c00044 	addi	r3,r2,1
 400178c:	e0bffd17 	ldw	r2,-12(fp)
 4001790:	10c00315 	stw	r3,12(r2)
            xReturn = pdPASS;
 4001794:	00800044 	movi	r2,1
 4001798:	e0bffe15 	stw	r2,-8(fp)
 400179c:	00000b06 	br	40017cc <xQueueTakeMutexRecursive+0x80>
        }
        else
        {
            xReturn = xQueueSemaphoreTake( pxMutex, xTicksToWait );
 40017a0:	e17ffb17 	ldw	r5,-20(fp)
 40017a4:	e13ffd17 	ldw	r4,-12(fp)
 40017a8:	4001dac0 	call	4001dac <xQueueSemaphoreTake>
 40017ac:	e0bffe15 	stw	r2,-8(fp)

            /* pdPASS will only be returned if the mutex was successfully
             * obtained.  The calling task may have entered the Blocked state
             * before reaching here. */
            if( xReturn != pdFAIL )
 40017b0:	e0bffe17 	ldw	r2,-8(fp)
 40017b4:	10000526 	beq	r2,zero,40017cc <xQueueTakeMutexRecursive+0x80>
            {
                ( pxMutex->u.xSemaphore.uxRecursiveCallCount )++;
 40017b8:	e0bffd17 	ldw	r2,-12(fp)
 40017bc:	10800317 	ldw	r2,12(r2)
 40017c0:	10c00044 	addi	r3,r2,1
 40017c4:	e0bffd17 	ldw	r2,-12(fp)
 40017c8:	10c00315 	stw	r3,12(r2)
            {
                traceTAKE_MUTEX_RECURSIVE_FAILED( pxMutex );
            }
        }

        return xReturn;
 40017cc:	e0bffe17 	ldw	r2,-8(fp)
    }
 40017d0:	e6ffff04 	addi	sp,fp,-4
 40017d4:	dfc00217 	ldw	ra,8(sp)
 40017d8:	df000117 	ldw	fp,4(sp)
 40017dc:	dc000017 	ldw	r16,0(sp)
 40017e0:	dec00304 	addi	sp,sp,12
 40017e4:	f800283a 	ret

040017e8 <xQueueCreateCountingSemaphore>:

#if ( ( configUSE_COUNTING_SEMAPHORES == 1 ) && ( configSUPPORT_DYNAMIC_ALLOCATION == 1 ) )

    QueueHandle_t xQueueCreateCountingSemaphore( const UBaseType_t uxMaxCount,
                                                 const UBaseType_t uxInitialCount )
    {
 40017e8:	defffb04 	addi	sp,sp,-20
 40017ec:	dfc00415 	stw	ra,16(sp)
 40017f0:	df000315 	stw	fp,12(sp)
 40017f4:	df000304 	addi	fp,sp,12
 40017f8:	e13ffe15 	stw	r4,-8(fp)
 40017fc:	e17ffd15 	stw	r5,-12(fp)
        QueueHandle_t xHandle = NULL;
 4001800:	e03fff15 	stw	zero,-4(fp)

        if( ( uxMaxCount != 0 ) &&
 4001804:	e0bffe17 	ldw	r2,-8(fp)
 4001808:	10000d26 	beq	r2,zero,4001840 <xQueueCreateCountingSemaphore+0x58>
 400180c:	e0bffd17 	ldw	r2,-12(fp)
 4001810:	e0fffe17 	ldw	r3,-8(fp)
 4001814:	18800a36 	bltu	r3,r2,4001840 <xQueueCreateCountingSemaphore+0x58>
            ( uxInitialCount <= uxMaxCount ) )
        {
            xHandle = xQueueGenericCreate( uxMaxCount, queueSEMAPHORE_QUEUE_ITEM_LENGTH, queueQUEUE_TYPE_COUNTING_SEMAPHORE );
 4001818:	01800084 	movi	r6,2
 400181c:	000b883a 	mov	r5,zero
 4001820:	e13ffe17 	ldw	r4,-8(fp)
 4001824:	40013d80 	call	40013d8 <xQueueGenericCreate>
 4001828:	e0bfff15 	stw	r2,-4(fp)

            if( xHandle != NULL )
 400182c:	e0bfff17 	ldw	r2,-4(fp)
 4001830:	10000326 	beq	r2,zero,4001840 <xQueueCreateCountingSemaphore+0x58>
            {
                ( ( Queue_t * ) xHandle )->uxMessagesWaiting = uxInitialCount;
 4001834:	e0bfff17 	ldw	r2,-4(fp)
 4001838:	e0fffd17 	ldw	r3,-12(fp)
 400183c:	10c00e15 	stw	r3,56(r2)
        {
            configASSERT( xHandle );
            mtCOVERAGE_TEST_MARKER();
        }

        return xHandle;
 4001840:	e0bfff17 	ldw	r2,-4(fp)
    }
 4001844:	e037883a 	mov	sp,fp
 4001848:	dfc00117 	ldw	ra,4(sp)
 400184c:	df000017 	ldw	fp,0(sp)
 4001850:	dec00204 	addi	sp,sp,8
 4001854:	f800283a 	ret

04001858 <xQueueGenericSend>:

BaseType_t xQueueGenericSend( QueueHandle_t xQueue,
                              const void * const pvItemToQueue,
                              TickType_t xTicksToWait,
                              const BaseType_t xCopyPosition )
{
 4001858:	defff504 	addi	sp,sp,-44
 400185c:	dfc00a15 	stw	ra,40(sp)
 4001860:	df000915 	stw	fp,36(sp)
 4001864:	df000904 	addi	fp,sp,36
 4001868:	e13ffa15 	stw	r4,-24(fp)
 400186c:	e17ff915 	stw	r5,-28(fp)
 4001870:	e1bff815 	stw	r6,-32(fp)
 4001874:	e1fff715 	stw	r7,-36(fp)
    BaseType_t xEntryTimeSet = pdFALSE, xYieldRequired;
 4001878:	e03fff15 	stw	zero,-4(fp)
    TimeOut_t xTimeOut;
    Queue_t * const pxQueue = xQueue;
 400187c:	e0bffa17 	ldw	r2,-24(fp)
 4001880:	e0bffe15 	stw	r2,-8(fp)
    /*lint -save -e904 This function relaxes the coding standard somewhat to
     * allow return statements within the function itself.  This is done in the
     * interest of execution time efficiency. */
    for( ; ; )
    {
        taskENTER_CRITICAL();
 4001884:	4005f7c0 	call	4005f7c <vTaskEnterCritical>
        {
            /* Is there room on the queue now?  The running task must be the
             * highest priority task wanting to access the queue.  If the head item
             * in the queue is to be overwritten then it does not matter if the
             * queue is full. */
            if( ( pxQueue->uxMessagesWaiting < pxQueue->uxLength ) || ( xCopyPosition == queueOVERWRITE ) )
 4001888:	e0bffe17 	ldw	r2,-8(fp)
 400188c:	10c00e17 	ldw	r3,56(r2)
 4001890:	e0bffe17 	ldw	r2,-8(fp)
 4001894:	10800f17 	ldw	r2,60(r2)
 4001898:	18800336 	bltu	r3,r2,40018a8 <xQueueGenericSend+0x50>
 400189c:	e0bff717 	ldw	r2,-36(fp)
 40018a0:	10800098 	cmpnei	r2,r2,2
 40018a4:	1000151e 	bne	r2,zero,40018fc <xQueueGenericSend+0xa4>
                        }
                    }
                }
                #else /* configUSE_QUEUE_SETS */
                {
                    xYieldRequired = prvCopyDataToQueue( pxQueue, pvItemToQueue, xCopyPosition );
 40018a8:	e1bff717 	ldw	r6,-36(fp)
 40018ac:	e17ff917 	ldw	r5,-28(fp)
 40018b0:	e13ffe17 	ldw	r4,-8(fp)
 40018b4:	40024380 	call	4002438 <prvCopyDataToQueue>
 40018b8:	e0bffd15 	stw	r2,-12(fp)

                    /* If there was a task waiting for data to arrive on the
                     * queue then unblock it now. */
                    if( listLIST_IS_EMPTY( &( pxQueue->xTasksWaitingToReceive ) ) == pdFALSE )
 40018bc:	e0bffe17 	ldw	r2,-8(fp)
 40018c0:	10800917 	ldw	r2,36(r2)
 40018c4:	10000726 	beq	r2,zero,40018e4 <xQueueGenericSend+0x8c>
                    {
                        if( xTaskRemoveFromEventList( &( pxQueue->xTasksWaitingToReceive ) ) != pdFALSE )
 40018c8:	e0bffe17 	ldw	r2,-8(fp)
 40018cc:	10800904 	addi	r2,r2,36
 40018d0:	1009883a 	mov	r4,r2
 40018d4:	400502c0 	call	400502c <xTaskRemoveFromEventList>
 40018d8:	10000526 	beq	r2,zero,40018f0 <xQueueGenericSend+0x98>
                        {
                            /* The unblocked task has a priority higher than
                             * our own so yield immediately.  Yes it is ok to do
                             * this from within the critical section - the kernel
                             * takes care of that. */
                            queueYIELD_IF_USING_PREEMPTION();
 40018dc:	003b683a 	trap	0
 40018e0:	00000306 	br	40018f0 <xQueueGenericSend+0x98>
                        else
                        {
                            mtCOVERAGE_TEST_MARKER();
                        }
                    }
                    else if( xYieldRequired != pdFALSE )
 40018e4:	e0bffd17 	ldw	r2,-12(fp)
 40018e8:	10000126 	beq	r2,zero,40018f0 <xQueueGenericSend+0x98>
                    {
                        /* This path is a special case that will only get
                         * executed if the task was holding multiple mutexes and
                         * the mutexes were given back in an order that is
                         * different to that in which they were taken. */
                        queueYIELD_IF_USING_PREEMPTION();
 40018ec:	003b683a 	trap	0
                        mtCOVERAGE_TEST_MARKER();
                    }
                }
                #endif /* configUSE_QUEUE_SETS */

                taskEXIT_CRITICAL();
 40018f0:	4005fd00 	call	4005fd0 <vTaskExitCritical>
                return pdPASS;
 40018f4:	00800044 	movi	r2,1
 40018f8:	00003f06 	br	40019f8 <xQueueGenericSend+0x1a0>
            }
            else
            {
                if( xTicksToWait == ( TickType_t ) 0 )
 40018fc:	e0bff817 	ldw	r2,-32(fp)
 4001900:	1000031e 	bne	r2,zero,4001910 <xQueueGenericSend+0xb8>
                {
                    /* The queue was full and no block time is specified (or
                     * the block time has expired) so leave now. */
                    taskEXIT_CRITICAL();
 4001904:	4005fd00 	call	4005fd0 <vTaskExitCritical>

                    /* Return to the original privilege level before exiting
                     * the function. */
                    traceQUEUE_SEND_FAILED( pxQueue );
                    return errQUEUE_FULL;
 4001908:	0005883a 	mov	r2,zero
 400190c:	00003a06 	br	40019f8 <xQueueGenericSend+0x1a0>
                }
                else if( xEntryTimeSet == pdFALSE )
 4001910:	e0bfff17 	ldw	r2,-4(fp)
 4001914:	1000051e 	bne	r2,zero,400192c <xQueueGenericSend+0xd4>
                {
                    /* The queue was full and a block time was specified so
                     * configure the timeout structure. */
                    vTaskInternalSetTimeOutState( &xTimeOut );
 4001918:	e0bffb04 	addi	r2,fp,-20
 400191c:	1009883a 	mov	r4,r2
 4001920:	40055980 	call	4005598 <vTaskInternalSetTimeOutState>
                    xEntryTimeSet = pdTRUE;
 4001924:	00800044 	movi	r2,1
 4001928:	e0bfff15 	stw	r2,-4(fp)
                    /* Entry time was already set. */
                    mtCOVERAGE_TEST_MARKER();
                }
            }
        }
        taskEXIT_CRITICAL();
 400192c:	4005fd00 	call	4005fd0 <vTaskExitCritical>

        /* Interrupts and other tasks can send to and receive from the queue
         * now the critical section has been exited. */

        vTaskSuspendAll();
 4001930:	40046f00 	call	40046f0 <vTaskSuspendAll>
        prvLockQueue( pxQueue );
 4001934:	4005f7c0 	call	4005f7c <vTaskEnterCritical>
 4001938:	e0bffe17 	ldw	r2,-8(fp)
 400193c:	10801103 	ldbu	r2,68(r2)
 4001940:	10803fcc 	andi	r2,r2,255
 4001944:	1080201c 	xori	r2,r2,128
 4001948:	10bfe004 	addi	r2,r2,-128
 400194c:	10bfffd8 	cmpnei	r2,r2,-1
 4001950:	1000021e 	bne	r2,zero,400195c <xQueueGenericSend+0x104>
 4001954:	e0bffe17 	ldw	r2,-8(fp)
 4001958:	10001105 	stb	zero,68(r2)
 400195c:	e0bffe17 	ldw	r2,-8(fp)
 4001960:	10801143 	ldbu	r2,69(r2)
 4001964:	10803fcc 	andi	r2,r2,255
 4001968:	1080201c 	xori	r2,r2,128
 400196c:	10bfe004 	addi	r2,r2,-128
 4001970:	10bfffd8 	cmpnei	r2,r2,-1
 4001974:	1000021e 	bne	r2,zero,4001980 <xQueueGenericSend+0x128>
 4001978:	e0bffe17 	ldw	r2,-8(fp)
 400197c:	10001145 	stb	zero,69(r2)
 4001980:	4005fd00 	call	4005fd0 <vTaskExitCritical>

        /* Update the timeout state to see if it has expired yet. */
        if( xTaskCheckForTimeOut( &xTimeOut, &xTicksToWait ) == pdFALSE )
 4001984:	e0fff804 	addi	r3,fp,-32
 4001988:	e0bffb04 	addi	r2,fp,-20
 400198c:	180b883a 	mov	r5,r3
 4001990:	1009883a 	mov	r4,r2
 4001994:	40055d40 	call	40055d4 <xTaskCheckForTimeOut>
 4001998:	1000131e 	bne	r2,zero,40019e8 <xQueueGenericSend+0x190>
        {
            if( prvIsQueueFull( pxQueue ) != pdFALSE )
 400199c:	e13ffe17 	ldw	r4,-8(fp)
 40019a0:	40027ec0 	call	40027ec <prvIsQueueFull>
 40019a4:	10000c26 	beq	r2,zero,40019d8 <xQueueGenericSend+0x180>
            {
                traceBLOCKING_ON_QUEUE_SEND( pxQueue );
                vTaskPlaceOnEventList( &( pxQueue->xTasksWaitingToSend ), xTicksToWait );
 40019a8:	e0bffe17 	ldw	r2,-8(fp)
 40019ac:	10800404 	addi	r2,r2,16
 40019b0:	e0fff817 	ldw	r3,-32(fp)
 40019b4:	180b883a 	mov	r5,r3
 40019b8:	1009883a 	mov	r4,r2
 40019bc:	4004f200 	call	4004f20 <vTaskPlaceOnEventList>
                /* Unlocking the queue means queue events can effect the
                 * event list. It is possible that interrupts occurring now
                 * remove this task from the event list again - but as the
                 * scheduler is suspended the task will go onto the pending
                 * ready list instead of the actual ready list. */
                prvUnlockQueue( pxQueue );
 40019c0:	e13ffe17 	ldw	r4,-8(fp)
 40019c4:	40026600 	call	4002660 <prvUnlockQueue>
                /* Resuming the scheduler will move tasks from the pending
                 * ready list into the ready list - so it is feasible that this
                 * task is already in the ready list before it yields - in which
                 * case the yield will not cause a context switch unless there
                 * is also a higher priority task in the pending ready list. */
                if( xTaskResumeAll() == pdFALSE )
 40019c8:	400471c0 	call	400471c <xTaskResumeAll>
 40019cc:	103fad1e 	bne	r2,zero,4001884 <xQueueGenericSend+0x2c>
                {
                    portYIELD_WITHIN_API();
 40019d0:	003b683a 	trap	0
 40019d4:	003fab06 	br	4001884 <xQueueGenericSend+0x2c>
                }
            }
            else
            {
                /* Try again. */
                prvUnlockQueue( pxQueue );
 40019d8:	e13ffe17 	ldw	r4,-8(fp)
 40019dc:	40026600 	call	4002660 <prvUnlockQueue>
                ( void ) xTaskResumeAll();
 40019e0:	400471c0 	call	400471c <xTaskResumeAll>
 40019e4:	003fa706 	br	4001884 <xQueueGenericSend+0x2c>
            }
        }
        else
        {
            /* The timeout has expired. */
            prvUnlockQueue( pxQueue );
 40019e8:	e13ffe17 	ldw	r4,-8(fp)
 40019ec:	40026600 	call	4002660 <prvUnlockQueue>
            ( void ) xTaskResumeAll();
 40019f0:	400471c0 	call	400471c <xTaskResumeAll>

            traceQUEUE_SEND_FAILED( pxQueue );
            return errQUEUE_FULL;
 40019f4:	0005883a 	mov	r2,zero
        }
    } /*lint -restore */
}
 40019f8:	e037883a 	mov	sp,fp
 40019fc:	dfc00117 	ldw	ra,4(sp)
 4001a00:	df000017 	ldw	fp,0(sp)
 4001a04:	dec00204 	addi	sp,sp,8
 4001a08:	f800283a 	ret

04001a0c <xQueueGenericSendFromISR>:

BaseType_t xQueueGenericSendFromISR( QueueHandle_t xQueue,
                                     const void * const pvItemToQueue,
                                     BaseType_t * const pxHigherPriorityTaskWoken,
                                     const BaseType_t xCopyPosition )
{
 4001a0c:	defff404 	addi	sp,sp,-48
 4001a10:	dfc00b15 	stw	ra,44(sp)
 4001a14:	df000a15 	stw	fp,40(sp)
 4001a18:	df000a04 	addi	fp,sp,40
 4001a1c:	e13ff915 	stw	r4,-28(fp)
 4001a20:	e17ff815 	stw	r5,-32(fp)
 4001a24:	e1bff715 	stw	r6,-36(fp)
 4001a28:	e1fff615 	stw	r7,-40(fp)
    BaseType_t xReturn;
    UBaseType_t uxSavedInterruptStatus;
    Queue_t * const pxQueue = xQueue;
 4001a2c:	e0bff917 	ldw	r2,-28(fp)
 4001a30:	e0bffe15 	stw	r2,-8(fp)
    /* Similar to xQueueGenericSend, except without blocking if there is no room
     * in the queue.  Also don't directly wake a task that was blocked on a queue
     * read, instead return a flag to say whether a context switch is required or
     * not (i.e. has a task with a higher priority than us been woken by this
     * post). */
    uxSavedInterruptStatus = portSET_INTERRUPT_MASK_FROM_ISR();
 4001a34:	e03ffd15 	stw	zero,-12(fp)
    {
        if( ( pxQueue->uxMessagesWaiting < pxQueue->uxLength ) || ( xCopyPosition == queueOVERWRITE ) )
 4001a38:	e0bffe17 	ldw	r2,-8(fp)
 4001a3c:	10c00e17 	ldw	r3,56(r2)
 4001a40:	e0bffe17 	ldw	r2,-8(fp)
 4001a44:	10800f17 	ldw	r2,60(r2)
 4001a48:	18800336 	bltu	r3,r2,4001a58 <xQueueGenericSendFromISR+0x4c>
 4001a4c:	e0bff617 	ldw	r2,-40(fp)
 4001a50:	10800098 	cmpnei	r2,r2,2
 4001a54:	1000281e 	bne	r2,zero,4001af8 <xQueueGenericSendFromISR+0xec>
        {
            const int8_t cTxLock = pxQueue->cTxLock;
 4001a58:	e0bffe17 	ldw	r2,-8(fp)
 4001a5c:	10801143 	ldbu	r2,69(r2)
 4001a60:	e0bffcc5 	stb	r2,-13(fp)
            const UBaseType_t uxPreviousMessagesWaiting = pxQueue->uxMessagesWaiting;
 4001a64:	e0bffe17 	ldw	r2,-8(fp)
 4001a68:	10800e17 	ldw	r2,56(r2)
 4001a6c:	e0bffb15 	stw	r2,-20(fp)
            /* Semaphores use xQueueGiveFromISR(), so pxQueue will not be a
             *  semaphore or mutex.  That means prvCopyDataToQueue() cannot result
             *  in a task disinheriting a priority and prvCopyDataToQueue() can be
             *  called here even though the disinherit function does not check if
             *  the scheduler is suspended before accessing the ready lists. */
            ( void ) prvCopyDataToQueue( pxQueue, pvItemToQueue, xCopyPosition );
 4001a70:	e1bff617 	ldw	r6,-40(fp)
 4001a74:	e17ff817 	ldw	r5,-32(fp)
 4001a78:	e13ffe17 	ldw	r4,-8(fp)
 4001a7c:	40024380 	call	4002438 <prvCopyDataToQueue>

            /* The event list is not altered if the queue is locked.  This will
             * be done when the queue is unlocked later. */
            if( cTxLock == queueUNLOCKED )
 4001a80:	e0bffcc7 	ldb	r2,-13(fp)
 4001a84:	10bfffd8 	cmpnei	r2,r2,-1
 4001a88:	10000e1e 	bne	r2,zero,4001ac4 <xQueueGenericSendFromISR+0xb8>
                        }
                    }
                }
                #else /* configUSE_QUEUE_SETS */
                {
                    if( listLIST_IS_EMPTY( &( pxQueue->xTasksWaitingToReceive ) ) == pdFALSE )
 4001a8c:	e0bffe17 	ldw	r2,-8(fp)
 4001a90:	10800917 	ldw	r2,36(r2)
 4001a94:	10001526 	beq	r2,zero,4001aec <xQueueGenericSendFromISR+0xe0>
                    {
                        if( xTaskRemoveFromEventList( &( pxQueue->xTasksWaitingToReceive ) ) != pdFALSE )
 4001a98:	e0bffe17 	ldw	r2,-8(fp)
 4001a9c:	10800904 	addi	r2,r2,36
 4001aa0:	1009883a 	mov	r4,r2
 4001aa4:	400502c0 	call	400502c <xTaskRemoveFromEventList>
 4001aa8:	10001026 	beq	r2,zero,4001aec <xQueueGenericSendFromISR+0xe0>
                        {
                            /* The task waiting has a higher priority so record that a
                             * context switch is required. */
                            if( pxHigherPriorityTaskWoken != NULL )
 4001aac:	e0bff717 	ldw	r2,-36(fp)
 4001ab0:	10000e26 	beq	r2,zero,4001aec <xQueueGenericSendFromISR+0xe0>
                            {
                                *pxHigherPriorityTaskWoken = pdTRUE;
 4001ab4:	e0bff717 	ldw	r2,-36(fp)
 4001ab8:	00c00044 	movi	r3,1
 4001abc:	10c00015 	stw	r3,0(r2)
 4001ac0:	00000a06 	br	4001aec <xQueueGenericSendFromISR+0xe0>
            }
            else
            {
                /* Increment the lock count so the task that unlocks the queue
                 * knows that data was posted while it was locked. */
                prvIncrementQueueTxLock( pxQueue, cTxLock );
 4001ac4:	4004a440 	call	4004a44 <uxTaskGetNumberOfTasks>
 4001ac8:	e0bffa15 	stw	r2,-24(fp)
 4001acc:	e0fffcc7 	ldb	r3,-13(fp)
 4001ad0:	e0bffa17 	ldw	r2,-24(fp)
 4001ad4:	1880052e 	bgeu	r3,r2,4001aec <xQueueGenericSendFromISR+0xe0>
 4001ad8:	e0bffcc3 	ldbu	r2,-13(fp)
 4001adc:	10800044 	addi	r2,r2,1
 4001ae0:	1007883a 	mov	r3,r2
 4001ae4:	e0bffe17 	ldw	r2,-8(fp)
 4001ae8:	10c01145 	stb	r3,69(r2)
            }

            xReturn = pdPASS;
 4001aec:	00800044 	movi	r2,1
 4001af0:	e0bfff15 	stw	r2,-4(fp)
        {
 4001af4:	00000106 	br	4001afc <xQueueGenericSendFromISR+0xf0>
        }
        else
        {
            traceQUEUE_SEND_FROM_ISR_FAILED( pxQueue );
            xReturn = errQUEUE_FULL;
 4001af8:	e03fff15 	stw	zero,-4(fp)
        }
    }
    portCLEAR_INTERRUPT_MASK_FROM_ISR( uxSavedInterruptStatus );

    return xReturn;
 4001afc:	e0bfff17 	ldw	r2,-4(fp)
}
 4001b00:	e037883a 	mov	sp,fp
 4001b04:	dfc00117 	ldw	ra,4(sp)
 4001b08:	df000017 	ldw	fp,0(sp)
 4001b0c:	dec00204 	addi	sp,sp,8
 4001b10:	f800283a 	ret

04001b14 <xQueueGiveFromISR>:
/*-----------------------------------------------------------*/

BaseType_t xQueueGiveFromISR( QueueHandle_t xQueue,
                              BaseType_t * const pxHigherPriorityTaskWoken )
{
 4001b14:	defff604 	addi	sp,sp,-40
 4001b18:	dfc00915 	stw	ra,36(sp)
 4001b1c:	df000815 	stw	fp,32(sp)
 4001b20:	df000804 	addi	fp,sp,32
 4001b24:	e13ff915 	stw	r4,-28(fp)
 4001b28:	e17ff815 	stw	r5,-32(fp)
    BaseType_t xReturn;
    UBaseType_t uxSavedInterruptStatus;
    Queue_t * const pxQueue = xQueue;
 4001b2c:	e0bff917 	ldw	r2,-28(fp)
 4001b30:	e0bffe15 	stw	r2,-8(fp)
     * safe API to ensure interrupt entry is as fast and as simple as possible.
     * More information (albeit Cortex-M specific) is provided on the following
     * link: https://www.FreeRTOS.org/RTOS-Cortex-M3-M4.html */
    portASSERT_IF_INTERRUPT_PRIORITY_INVALID();

    uxSavedInterruptStatus = portSET_INTERRUPT_MASK_FROM_ISR();
 4001b34:	e03ffd15 	stw	zero,-12(fp)
    {
        const UBaseType_t uxMessagesWaiting = pxQueue->uxMessagesWaiting;
 4001b38:	e0bffe17 	ldw	r2,-8(fp)
 4001b3c:	10800e17 	ldw	r2,56(r2)
 4001b40:	e0bffc15 	stw	r2,-16(fp)

        /* When the queue is used to implement a semaphore no data is ever
         * moved through the queue but it is still valid to see if the queue 'has
         * space'. */
        if( uxMessagesWaiting < pxQueue->uxLength )
 4001b44:	e0bffe17 	ldw	r2,-8(fp)
 4001b48:	10800f17 	ldw	r2,60(r2)
 4001b4c:	e0fffc17 	ldw	r3,-16(fp)
 4001b50:	1880252e 	bgeu	r3,r2,4001be8 <xQueueGiveFromISR+0xd4>
        {
            const int8_t cTxLock = pxQueue->cTxLock;
 4001b54:	e0bffe17 	ldw	r2,-8(fp)
 4001b58:	10801143 	ldbu	r2,69(r2)
 4001b5c:	e0bffbc5 	stb	r2,-17(fp)
             * holder - and if there is a mutex holder then the mutex cannot be
             * given from an ISR.  As this is the ISR version of the function it
             * can be assumed there is no mutex holder and no need to determine if
             * priority disinheritance is needed.  Simply increase the count of
             * messages (semaphores) available. */
            pxQueue->uxMessagesWaiting = uxMessagesWaiting + ( UBaseType_t ) 1;
 4001b60:	e0bffc17 	ldw	r2,-16(fp)
 4001b64:	10c00044 	addi	r3,r2,1
 4001b68:	e0bffe17 	ldw	r2,-8(fp)
 4001b6c:	10c00e15 	stw	r3,56(r2)

            /* The event list is not altered if the queue is locked.  This will
             * be done when the queue is unlocked later. */
            if( cTxLock == queueUNLOCKED )
 4001b70:	e0bffbc7 	ldb	r2,-17(fp)
 4001b74:	10bfffd8 	cmpnei	r2,r2,-1
 4001b78:	10000e1e 	bne	r2,zero,4001bb4 <xQueueGiveFromISR+0xa0>
                        }
                    }
                }
                #else /* configUSE_QUEUE_SETS */
                {
                    if( listLIST_IS_EMPTY( &( pxQueue->xTasksWaitingToReceive ) ) == pdFALSE )
 4001b7c:	e0bffe17 	ldw	r2,-8(fp)
 4001b80:	10800917 	ldw	r2,36(r2)
 4001b84:	10001526 	beq	r2,zero,4001bdc <xQueueGiveFromISR+0xc8>
                    {
                        if( xTaskRemoveFromEventList( &( pxQueue->xTasksWaitingToReceive ) ) != pdFALSE )
 4001b88:	e0bffe17 	ldw	r2,-8(fp)
 4001b8c:	10800904 	addi	r2,r2,36
 4001b90:	1009883a 	mov	r4,r2
 4001b94:	400502c0 	call	400502c <xTaskRemoveFromEventList>
 4001b98:	10001026 	beq	r2,zero,4001bdc <xQueueGiveFromISR+0xc8>
                        {
                            /* The task waiting has a higher priority so record that a
                             * context switch is required. */
                            if( pxHigherPriorityTaskWoken != NULL )
 4001b9c:	e0bff817 	ldw	r2,-32(fp)
 4001ba0:	10000e26 	beq	r2,zero,4001bdc <xQueueGiveFromISR+0xc8>
                            {
                                *pxHigherPriorityTaskWoken = pdTRUE;
 4001ba4:	e0bff817 	ldw	r2,-32(fp)
 4001ba8:	00c00044 	movi	r3,1
 4001bac:	10c00015 	stw	r3,0(r2)
 4001bb0:	00000a06 	br	4001bdc <xQueueGiveFromISR+0xc8>
            }
            else
            {
                /* Increment the lock count so the task that unlocks the queue
                 * knows that data was posted while it was locked. */
                prvIncrementQueueTxLock( pxQueue, cTxLock );
 4001bb4:	4004a440 	call	4004a44 <uxTaskGetNumberOfTasks>
 4001bb8:	e0bffa15 	stw	r2,-24(fp)
 4001bbc:	e0fffbc7 	ldb	r3,-17(fp)
 4001bc0:	e0bffa17 	ldw	r2,-24(fp)
 4001bc4:	1880052e 	bgeu	r3,r2,4001bdc <xQueueGiveFromISR+0xc8>
 4001bc8:	e0bffbc3 	ldbu	r2,-17(fp)
 4001bcc:	10800044 	addi	r2,r2,1
 4001bd0:	1007883a 	mov	r3,r2
 4001bd4:	e0bffe17 	ldw	r2,-8(fp)
 4001bd8:	10c01145 	stb	r3,69(r2)
            }

            xReturn = pdPASS;
 4001bdc:	00800044 	movi	r2,1
 4001be0:	e0bfff15 	stw	r2,-4(fp)
 4001be4:	00000106 	br	4001bec <xQueueGiveFromISR+0xd8>
        }
        else
        {
            traceQUEUE_SEND_FROM_ISR_FAILED( pxQueue );
            xReturn = errQUEUE_FULL;
 4001be8:	e03fff15 	stw	zero,-4(fp)
        }
    }
    portCLEAR_INTERRUPT_MASK_FROM_ISR( uxSavedInterruptStatus );

    return xReturn;
 4001bec:	e0bfff17 	ldw	r2,-4(fp)
}
 4001bf0:	e037883a 	mov	sp,fp
 4001bf4:	dfc00117 	ldw	ra,4(sp)
 4001bf8:	df000017 	ldw	fp,0(sp)
 4001bfc:	dec00204 	addi	sp,sp,8
 4001c00:	f800283a 	ret

04001c04 <xQueueReceive>:
/*-----------------------------------------------------------*/

BaseType_t xQueueReceive( QueueHandle_t xQueue,
                          void * const pvBuffer,
                          TickType_t xTicksToWait )
{
 4001c04:	defff604 	addi	sp,sp,-40
 4001c08:	dfc00915 	stw	ra,36(sp)
 4001c0c:	df000815 	stw	fp,32(sp)
 4001c10:	df000804 	addi	fp,sp,32
 4001c14:	e13ffa15 	stw	r4,-24(fp)
 4001c18:	e17ff915 	stw	r5,-28(fp)
 4001c1c:	e1bff815 	stw	r6,-32(fp)
    BaseType_t xEntryTimeSet = pdFALSE;
 4001c20:	e03fff15 	stw	zero,-4(fp)
    TimeOut_t xTimeOut;
    Queue_t * const pxQueue = xQueue;
 4001c24:	e0bffa17 	ldw	r2,-24(fp)
 4001c28:	e0bffe15 	stw	r2,-8(fp)
    /*lint -save -e904  This function relaxes the coding standard somewhat to
     * allow return statements within the function itself.  This is done in the
     * interest of execution time efficiency. */
    for( ; ; )
    {
        taskENTER_CRITICAL();
 4001c2c:	4005f7c0 	call	4005f7c <vTaskEnterCritical>
        {
            const UBaseType_t uxMessagesWaiting = pxQueue->uxMessagesWaiting;
 4001c30:	e0bffe17 	ldw	r2,-8(fp)
 4001c34:	10800e17 	ldw	r2,56(r2)
 4001c38:	e0bffd15 	stw	r2,-12(fp)

            /* Is there data in the queue now?  To be running the calling task
             * must be the highest priority task wanting to access the queue. */
            if( uxMessagesWaiting > ( UBaseType_t ) 0 )
 4001c3c:	e0bffd17 	ldw	r2,-12(fp)
 4001c40:	10001326 	beq	r2,zero,4001c90 <xQueueReceive+0x8c>
            {
                /* Data available, remove one item. */
                prvCopyDataFromQueue( pxQueue, pvBuffer );
 4001c44:	e17ff917 	ldw	r5,-28(fp)
 4001c48:	e13ffe17 	ldw	r4,-8(fp)
 4001c4c:	40025c40 	call	40025c4 <prvCopyDataFromQueue>
                traceQUEUE_RECEIVE( pxQueue );
                pxQueue->uxMessagesWaiting = uxMessagesWaiting - ( UBaseType_t ) 1;
 4001c50:	e0bffd17 	ldw	r2,-12(fp)
 4001c54:	10ffffc4 	addi	r3,r2,-1
 4001c58:	e0bffe17 	ldw	r2,-8(fp)
 4001c5c:	10c00e15 	stw	r3,56(r2)

                /* There is now space in the queue, were any tasks waiting to
                 * post to the queue?  If so, unblock the highest priority waiting
                 * task. */
                if( listLIST_IS_EMPTY( &( pxQueue->xTasksWaitingToSend ) ) == pdFALSE )
 4001c60:	e0bffe17 	ldw	r2,-8(fp)
 4001c64:	10800417 	ldw	r2,16(r2)
 4001c68:	10000626 	beq	r2,zero,4001c84 <xQueueReceive+0x80>
                {
                    if( xTaskRemoveFromEventList( &( pxQueue->xTasksWaitingToSend ) ) != pdFALSE )
 4001c6c:	e0bffe17 	ldw	r2,-8(fp)
 4001c70:	10800404 	addi	r2,r2,16
 4001c74:	1009883a 	mov	r4,r2
 4001c78:	400502c0 	call	400502c <xTaskRemoveFromEventList>
 4001c7c:	10000126 	beq	r2,zero,4001c84 <xQueueReceive+0x80>
                    {
                        queueYIELD_IF_USING_PREEMPTION();
 4001c80:	003b683a 	trap	0
                else
                {
                    mtCOVERAGE_TEST_MARKER();
                }

                taskEXIT_CRITICAL();
 4001c84:	4005fd00 	call	4005fd0 <vTaskExitCritical>
                return pdPASS;
 4001c88:	00800044 	movi	r2,1
 4001c8c:	00004206 	br	4001d98 <xQueueReceive+0x194>
            }
            else
            {
                if( xTicksToWait == ( TickType_t ) 0 )
 4001c90:	e0bff817 	ldw	r2,-32(fp)
 4001c94:	1000031e 	bne	r2,zero,4001ca4 <xQueueReceive+0xa0>
                {
                    /* The queue was empty and no block time is specified (or
                     * the block time has expired) so leave now. */
                    taskEXIT_CRITICAL();
 4001c98:	4005fd00 	call	4005fd0 <vTaskExitCritical>
                    traceQUEUE_RECEIVE_FAILED( pxQueue );
                    return errQUEUE_EMPTY;
 4001c9c:	0005883a 	mov	r2,zero
 4001ca0:	00003d06 	br	4001d98 <xQueueReceive+0x194>
                }
                else if( xEntryTimeSet == pdFALSE )
 4001ca4:	e0bfff17 	ldw	r2,-4(fp)
 4001ca8:	1000051e 	bne	r2,zero,4001cc0 <xQueueReceive+0xbc>
                {
                    /* The queue was empty and a block time was specified so
                     * configure the timeout structure. */
                    vTaskInternalSetTimeOutState( &xTimeOut );
 4001cac:	e0bffb04 	addi	r2,fp,-20
 4001cb0:	1009883a 	mov	r4,r2
 4001cb4:	40055980 	call	4005598 <vTaskInternalSetTimeOutState>
                    xEntryTimeSet = pdTRUE;
 4001cb8:	00800044 	movi	r2,1
 4001cbc:	e0bfff15 	stw	r2,-4(fp)
                    /* Entry time was already set. */
                    mtCOVERAGE_TEST_MARKER();
                }
            }
        }
        taskEXIT_CRITICAL();
 4001cc0:	4005fd00 	call	4005fd0 <vTaskExitCritical>

        /* Interrupts and other tasks can send to and receive from the queue
         * now the critical section has been exited. */

        vTaskSuspendAll();
 4001cc4:	40046f00 	call	40046f0 <vTaskSuspendAll>
        prvLockQueue( pxQueue );
 4001cc8:	4005f7c0 	call	4005f7c <vTaskEnterCritical>
 4001ccc:	e0bffe17 	ldw	r2,-8(fp)
 4001cd0:	10801103 	ldbu	r2,68(r2)
 4001cd4:	10803fcc 	andi	r2,r2,255
 4001cd8:	1080201c 	xori	r2,r2,128
 4001cdc:	10bfe004 	addi	r2,r2,-128
 4001ce0:	10bfffd8 	cmpnei	r2,r2,-1
 4001ce4:	1000021e 	bne	r2,zero,4001cf0 <xQueueReceive+0xec>
 4001ce8:	e0bffe17 	ldw	r2,-8(fp)
 4001cec:	10001105 	stb	zero,68(r2)
 4001cf0:	e0bffe17 	ldw	r2,-8(fp)
 4001cf4:	10801143 	ldbu	r2,69(r2)
 4001cf8:	10803fcc 	andi	r2,r2,255
 4001cfc:	1080201c 	xori	r2,r2,128
 4001d00:	10bfe004 	addi	r2,r2,-128
 4001d04:	10bfffd8 	cmpnei	r2,r2,-1
 4001d08:	1000021e 	bne	r2,zero,4001d14 <xQueueReceive+0x110>
 4001d0c:	e0bffe17 	ldw	r2,-8(fp)
 4001d10:	10001145 	stb	zero,69(r2)
 4001d14:	4005fd00 	call	4005fd0 <vTaskExitCritical>

        /* Update the timeout state to see if it has expired yet. */
        if( xTaskCheckForTimeOut( &xTimeOut, &xTicksToWait ) == pdFALSE )
 4001d18:	e0fff804 	addi	r3,fp,-32
 4001d1c:	e0bffb04 	addi	r2,fp,-20
 4001d20:	180b883a 	mov	r5,r3
 4001d24:	1009883a 	mov	r4,r2
 4001d28:	40055d40 	call	40055d4 <xTaskCheckForTimeOut>
 4001d2c:	1000131e 	bne	r2,zero,4001d7c <xQueueReceive+0x178>
        {
            /* The timeout has not expired.  If the queue is still empty place
             * the task on the list of tasks waiting to receive from the queue. */
            if( prvIsQueueEmpty( pxQueue ) != pdFALSE )
 4001d30:	e13ffe17 	ldw	r4,-8(fp)
 4001d34:	40027540 	call	4002754 <prvIsQueueEmpty>
 4001d38:	10000c26 	beq	r2,zero,4001d6c <xQueueReceive+0x168>
            {
                traceBLOCKING_ON_QUEUE_RECEIVE( pxQueue );
                vTaskPlaceOnEventList( &( pxQueue->xTasksWaitingToReceive ), xTicksToWait );
 4001d3c:	e0bffe17 	ldw	r2,-8(fp)
 4001d40:	10800904 	addi	r2,r2,36
 4001d44:	e0fff817 	ldw	r3,-32(fp)
 4001d48:	180b883a 	mov	r5,r3
 4001d4c:	1009883a 	mov	r4,r2
 4001d50:	4004f200 	call	4004f20 <vTaskPlaceOnEventList>
                prvUnlockQueue( pxQueue );
 4001d54:	e13ffe17 	ldw	r4,-8(fp)
 4001d58:	40026600 	call	4002660 <prvUnlockQueue>

                if( xTaskResumeAll() == pdFALSE )
 4001d5c:	400471c0 	call	400471c <xTaskResumeAll>
 4001d60:	103fb21e 	bne	r2,zero,4001c2c <xQueueReceive+0x28>
                {
                    portYIELD_WITHIN_API();
 4001d64:	003b683a 	trap	0
 4001d68:	003fb006 	br	4001c2c <xQueueReceive+0x28>
            }
            else
            {
                /* The queue contains data again.  Loop back to try and read the
                 * data. */
                prvUnlockQueue( pxQueue );
 4001d6c:	e13ffe17 	ldw	r4,-8(fp)
 4001d70:	40026600 	call	4002660 <prvUnlockQueue>
                ( void ) xTaskResumeAll();
 4001d74:	400471c0 	call	400471c <xTaskResumeAll>
 4001d78:	003fac06 	br	4001c2c <xQueueReceive+0x28>
        }
        else
        {
            /* Timed out.  If there is no data in the queue exit, otherwise loop
             * back and attempt to read the data. */
            prvUnlockQueue( pxQueue );
 4001d7c:	e13ffe17 	ldw	r4,-8(fp)
 4001d80:	40026600 	call	4002660 <prvUnlockQueue>
            ( void ) xTaskResumeAll();
 4001d84:	400471c0 	call	400471c <xTaskResumeAll>

            if( prvIsQueueEmpty( pxQueue ) != pdFALSE )
 4001d88:	e13ffe17 	ldw	r4,-8(fp)
 4001d8c:	40027540 	call	4002754 <prvIsQueueEmpty>
 4001d90:	103fa626 	beq	r2,zero,4001c2c <xQueueReceive+0x28>
            {
                traceQUEUE_RECEIVE_FAILED( pxQueue );
                return errQUEUE_EMPTY;
 4001d94:	0005883a 	mov	r2,zero
            {
                mtCOVERAGE_TEST_MARKER();
            }
        }
    } /*lint -restore */
}
 4001d98:	e037883a 	mov	sp,fp
 4001d9c:	dfc00117 	ldw	ra,4(sp)
 4001da0:	df000017 	ldw	fp,0(sp)
 4001da4:	dec00204 	addi	sp,sp,8
 4001da8:	f800283a 	ret

04001dac <xQueueSemaphoreTake>:
/*-----------------------------------------------------------*/

BaseType_t xQueueSemaphoreTake( QueueHandle_t xQueue,
                                TickType_t xTicksToWait )
{
 4001dac:	defff504 	addi	sp,sp,-44
 4001db0:	dfc00a15 	stw	ra,40(sp)
 4001db4:	df000915 	stw	fp,36(sp)
 4001db8:	df000904 	addi	fp,sp,36
 4001dbc:	e13ff815 	stw	r4,-32(fp)
 4001dc0:	e17ff715 	stw	r5,-36(fp)
    BaseType_t xEntryTimeSet = pdFALSE;
 4001dc4:	e03fff15 	stw	zero,-4(fp)
    TimeOut_t xTimeOut;
    Queue_t * const pxQueue = xQueue;
 4001dc8:	e0bff817 	ldw	r2,-32(fp)
 4001dcc:	e0bffd15 	stw	r2,-12(fp)

    #if ( configUSE_MUTEXES == 1 )
        BaseType_t xInheritanceOccurred = pdFALSE;
 4001dd0:	e03ffe15 	stw	zero,-8(fp)
    /*lint -save -e904 This function relaxes the coding standard somewhat to allow return
     * statements within the function itself.  This is done in the interest
     * of execution time efficiency. */
    for( ; ; )
    {
        taskENTER_CRITICAL();
 4001dd4:	4005f7c0 	call	4005f7c <vTaskEnterCritical>
        {
            /* Semaphores are queues with an item size of 0, and where the
             * number of messages in the queue is the semaphore's count value. */
            const UBaseType_t uxSemaphoreCount = pxQueue->uxMessagesWaiting;
 4001dd8:	e0bffd17 	ldw	r2,-12(fp)
 4001ddc:	10800e17 	ldw	r2,56(r2)
 4001de0:	e0bffc15 	stw	r2,-16(fp)

            /* Is there data in the queue now?  To be running the calling task
             * must be the highest priority task wanting to access the queue. */
            if( uxSemaphoreCount > ( UBaseType_t ) 0 )
 4001de4:	e0bffc17 	ldw	r2,-16(fp)
 4001de8:	10001726 	beq	r2,zero,4001e48 <xQueueSemaphoreTake+0x9c>
            {
                traceQUEUE_RECEIVE( pxQueue );

                /* Semaphores are queues with a data size of zero and where the
                 * messages waiting is the semaphore's count.  Reduce the count. */
                pxQueue->uxMessagesWaiting = uxSemaphoreCount - ( UBaseType_t ) 1;
 4001dec:	e0bffc17 	ldw	r2,-16(fp)
 4001df0:	10ffffc4 	addi	r3,r2,-1
 4001df4:	e0bffd17 	ldw	r2,-12(fp)
 4001df8:	10c00e15 	stw	r3,56(r2)

                #if ( configUSE_MUTEXES == 1 )
                {
                    if( pxQueue->uxQueueType == queueQUEUE_IS_MUTEX )
 4001dfc:	e0bffd17 	ldw	r2,-12(fp)
 4001e00:	10800017 	ldw	r2,0(r2)
 4001e04:	1000041e 	bne	r2,zero,4001e18 <xQueueSemaphoreTake+0x6c>
                    {
                        /* Record the information required to implement
                         * priority inheritance should it become necessary. */
                        pxQueue->u.xSemaphore.xMutexHolder = pvTaskIncrementMutexHeldCount();
 4001e08:	40060780 	call	4006078 <pvTaskIncrementMutexHeldCount>
 4001e0c:	1007883a 	mov	r3,r2
 4001e10:	e0bffd17 	ldw	r2,-12(fp)
 4001e14:	10c00215 	stw	r3,8(r2)
                }
                #endif /* configUSE_MUTEXES */

                /* Check to see if other tasks are blocked waiting to give the
                 * semaphore, and if so, unblock the highest priority such task. */
                if( listLIST_IS_EMPTY( &( pxQueue->xTasksWaitingToSend ) ) == pdFALSE )
 4001e18:	e0bffd17 	ldw	r2,-12(fp)
 4001e1c:	10800417 	ldw	r2,16(r2)
 4001e20:	10000626 	beq	r2,zero,4001e3c <xQueueSemaphoreTake+0x90>
                {
                    if( xTaskRemoveFromEventList( &( pxQueue->xTasksWaitingToSend ) ) != pdFALSE )
 4001e24:	e0bffd17 	ldw	r2,-12(fp)
 4001e28:	10800404 	addi	r2,r2,16
 4001e2c:	1009883a 	mov	r4,r2
 4001e30:	400502c0 	call	400502c <xTaskRemoveFromEventList>
 4001e34:	10000126 	beq	r2,zero,4001e3c <xQueueSemaphoreTake+0x90>
                    {
                        queueYIELD_IF_USING_PREEMPTION();
 4001e38:	003b683a 	trap	0
                else
                {
                    mtCOVERAGE_TEST_MARKER();
                }

                taskEXIT_CRITICAL();
 4001e3c:	4005fd00 	call	4005fd0 <vTaskExitCritical>
                return pdPASS;
 4001e40:	00800044 	movi	r2,1
 4001e44:	00005806 	br	4001fa8 <xQueueSemaphoreTake+0x1fc>
            }
            else
            {
                if( xTicksToWait == ( TickType_t ) 0 )
 4001e48:	e0bff717 	ldw	r2,-36(fp)
 4001e4c:	1000031e 	bne	r2,zero,4001e5c <xQueueSemaphoreTake+0xb0>
                {
                    /* The semaphore count was 0 and no block time is specified
                     * (or the block time has expired) so exit now. */
                    taskEXIT_CRITICAL();
 4001e50:	4005fd00 	call	4005fd0 <vTaskExitCritical>
                    traceQUEUE_RECEIVE_FAILED( pxQueue );
                    return errQUEUE_EMPTY;
 4001e54:	0005883a 	mov	r2,zero
 4001e58:	00005306 	br	4001fa8 <xQueueSemaphoreTake+0x1fc>
                }
                else if( xEntryTimeSet == pdFALSE )
 4001e5c:	e0bfff17 	ldw	r2,-4(fp)
 4001e60:	1000051e 	bne	r2,zero,4001e78 <xQueueSemaphoreTake+0xcc>
                {
                    /* The semaphore count was 0 and a block time was specified
                     * so configure the timeout structure ready to block. */
                    vTaskInternalSetTimeOutState( &xTimeOut );
 4001e64:	e0bff904 	addi	r2,fp,-28
 4001e68:	1009883a 	mov	r4,r2
 4001e6c:	40055980 	call	4005598 <vTaskInternalSetTimeOutState>
                    xEntryTimeSet = pdTRUE;
 4001e70:	00800044 	movi	r2,1
 4001e74:	e0bfff15 	stw	r2,-4(fp)
                    /* Entry time was already set. */
                    mtCOVERAGE_TEST_MARKER();
                }
            }
        }
        taskEXIT_CRITICAL();
 4001e78:	4005fd00 	call	4005fd0 <vTaskExitCritical>

        /* Interrupts and other tasks can give to and take from the semaphore
         * now the critical section has been exited. */

        vTaskSuspendAll();
 4001e7c:	40046f00 	call	40046f0 <vTaskSuspendAll>
        prvLockQueue( pxQueue );
 4001e80:	4005f7c0 	call	4005f7c <vTaskEnterCritical>
 4001e84:	e0bffd17 	ldw	r2,-12(fp)
 4001e88:	10801103 	ldbu	r2,68(r2)
 4001e8c:	10803fcc 	andi	r2,r2,255
 4001e90:	1080201c 	xori	r2,r2,128
 4001e94:	10bfe004 	addi	r2,r2,-128
 4001e98:	10bfffd8 	cmpnei	r2,r2,-1
 4001e9c:	1000021e 	bne	r2,zero,4001ea8 <xQueueSemaphoreTake+0xfc>
 4001ea0:	e0bffd17 	ldw	r2,-12(fp)
 4001ea4:	10001105 	stb	zero,68(r2)
 4001ea8:	e0bffd17 	ldw	r2,-12(fp)
 4001eac:	10801143 	ldbu	r2,69(r2)
 4001eb0:	10803fcc 	andi	r2,r2,255
 4001eb4:	1080201c 	xori	r2,r2,128
 4001eb8:	10bfe004 	addi	r2,r2,-128
 4001ebc:	10bfffd8 	cmpnei	r2,r2,-1
 4001ec0:	1000021e 	bne	r2,zero,4001ecc <xQueueSemaphoreTake+0x120>
 4001ec4:	e0bffd17 	ldw	r2,-12(fp)
 4001ec8:	10001145 	stb	zero,69(r2)
 4001ecc:	4005fd00 	call	4005fd0 <vTaskExitCritical>

        /* Update the timeout state to see if it has expired yet. */
        if( xTaskCheckForTimeOut( &xTimeOut, &xTicksToWait ) == pdFALSE )
 4001ed0:	e0fff704 	addi	r3,fp,-36
 4001ed4:	e0bff904 	addi	r2,fp,-28
 4001ed8:	180b883a 	mov	r5,r3
 4001edc:	1009883a 	mov	r4,r2
 4001ee0:	40055d40 	call	40055d4 <xTaskCheckForTimeOut>
 4001ee4:	10001d1e 	bne	r2,zero,4001f5c <xQueueSemaphoreTake+0x1b0>
        {
            /* A block time is specified and not expired.  If the semaphore
             * count is 0 then enter the Blocked state to wait for a semaphore to
             * become available.  As semaphores are implemented with queues the
             * queue being empty is equivalent to the semaphore count being 0. */
            if( prvIsQueueEmpty( pxQueue ) != pdFALSE )
 4001ee8:	e13ffd17 	ldw	r4,-12(fp)
 4001eec:	40027540 	call	4002754 <prvIsQueueEmpty>
 4001ef0:	10001626 	beq	r2,zero,4001f4c <xQueueSemaphoreTake+0x1a0>
            {
                traceBLOCKING_ON_QUEUE_RECEIVE( pxQueue );

                #if ( configUSE_MUTEXES == 1 )
                {
                    if( pxQueue->uxQueueType == queueQUEUE_IS_MUTEX )
 4001ef4:	e0bffd17 	ldw	r2,-12(fp)
 4001ef8:	10800017 	ldw	r2,0(r2)
 4001efc:	1000071e 	bne	r2,zero,4001f1c <xQueueSemaphoreTake+0x170>
                    {
                        taskENTER_CRITICAL();
 4001f00:	4005f7c0 	call	4005f7c <vTaskEnterCritical>
                        {
                            xInheritanceOccurred = xTaskPriorityInherit( pxQueue->u.xSemaphore.xMutexHolder );
 4001f04:	e0bffd17 	ldw	r2,-12(fp)
 4001f08:	10800217 	ldw	r2,8(r2)
 4001f0c:	1009883a 	mov	r4,r2
 4001f10:	40059b80 	call	40059b8 <xTaskPriorityInherit>
 4001f14:	e0bffe15 	stw	r2,-8(fp)
                        }
                        taskEXIT_CRITICAL();
 4001f18:	4005fd00 	call	4005fd0 <vTaskExitCritical>
                        mtCOVERAGE_TEST_MARKER();
                    }
                }
                #endif /* if ( configUSE_MUTEXES == 1 ) */

                vTaskPlaceOnEventList( &( pxQueue->xTasksWaitingToReceive ), xTicksToWait );
 4001f1c:	e0bffd17 	ldw	r2,-12(fp)
 4001f20:	10800904 	addi	r2,r2,36
 4001f24:	e0fff717 	ldw	r3,-36(fp)
 4001f28:	180b883a 	mov	r5,r3
 4001f2c:	1009883a 	mov	r4,r2
 4001f30:	4004f200 	call	4004f20 <vTaskPlaceOnEventList>
                prvUnlockQueue( pxQueue );
 4001f34:	e13ffd17 	ldw	r4,-12(fp)
 4001f38:	40026600 	call	4002660 <prvUnlockQueue>

                if( xTaskResumeAll() == pdFALSE )
 4001f3c:	400471c0 	call	400471c <xTaskResumeAll>
 4001f40:	103fa41e 	bne	r2,zero,4001dd4 <xQueueSemaphoreTake+0x28>
                {
                    portYIELD_WITHIN_API();
 4001f44:	003b683a 	trap	0
 4001f48:	003fa206 	br	4001dd4 <xQueueSemaphoreTake+0x28>
            }
            else
            {
                /* There was no timeout and the semaphore count was not 0, so
                 * attempt to take the semaphore again. */
                prvUnlockQueue( pxQueue );
 4001f4c:	e13ffd17 	ldw	r4,-12(fp)
 4001f50:	40026600 	call	4002660 <prvUnlockQueue>
                ( void ) xTaskResumeAll();
 4001f54:	400471c0 	call	400471c <xTaskResumeAll>
 4001f58:	003f9e06 	br	4001dd4 <xQueueSemaphoreTake+0x28>
            }
        }
        else
        {
            /* Timed out. */
            prvUnlockQueue( pxQueue );
 4001f5c:	e13ffd17 	ldw	r4,-12(fp)
 4001f60:	40026600 	call	4002660 <prvUnlockQueue>
            ( void ) xTaskResumeAll();
 4001f64:	400471c0 	call	400471c <xTaskResumeAll>

            /* If the semaphore count is 0 exit now as the timeout has
             * expired.  Otherwise return to attempt to take the semaphore that is
             * known to be available.  As semaphores are implemented by queues the
             * queue being empty is equivalent to the semaphore count being 0. */
            if( prvIsQueueEmpty( pxQueue ) != pdFALSE )
 4001f68:	e13ffd17 	ldw	r4,-12(fp)
 4001f6c:	40027540 	call	4002754 <prvIsQueueEmpty>
 4001f70:	103f9826 	beq	r2,zero,4001dd4 <xQueueSemaphoreTake+0x28>
                #if ( configUSE_MUTEXES == 1 )
                {
                    /* xInheritanceOccurred could only have be set if
                     * pxQueue->uxQueueType == queueQUEUE_IS_MUTEX so no need to
                     * test the mutex type again to check it is actually a mutex. */
                    if( xInheritanceOccurred != pdFALSE )
 4001f74:	e0bffe17 	ldw	r2,-8(fp)
 4001f78:	10000a26 	beq	r2,zero,4001fa4 <xQueueSemaphoreTake+0x1f8>
                    {
                        taskENTER_CRITICAL();
 4001f7c:	4005f7c0 	call	4005f7c <vTaskEnterCritical>
                            /* This task blocking on the mutex caused another
                             * task to inherit this task's priority.  Now this task
                             * has timed out the priority should be disinherited
                             * again, but only as low as the next highest priority
                             * task that is waiting for the same mutex. */
                            uxHighestWaitingPriority = prvGetDisinheritPriorityAfterTimeout( pxQueue );
 4001f80:	e13ffd17 	ldw	r4,-12(fp)
 4001f84:	40023e80 	call	40023e8 <prvGetDisinheritPriorityAfterTimeout>
 4001f88:	e0bffb15 	stw	r2,-20(fp)
                            vTaskPriorityDisinheritAfterTimeout( pxQueue->u.xSemaphore.xMutexHolder, uxHighestWaitingPriority );
 4001f8c:	e0bffd17 	ldw	r2,-12(fp)
 4001f90:	10800217 	ldw	r2,8(r2)
 4001f94:	e17ffb17 	ldw	r5,-20(fp)
 4001f98:	1009883a 	mov	r4,r2
 4001f9c:	4005d780 	call	4005d78 <vTaskPriorityDisinheritAfterTimeout>
                        }
                        taskEXIT_CRITICAL();
 4001fa0:	4005fd00 	call	4005fd0 <vTaskExitCritical>
                    }
                }
                #endif /* configUSE_MUTEXES */

                traceQUEUE_RECEIVE_FAILED( pxQueue );
                return errQUEUE_EMPTY;
 4001fa4:	0005883a 	mov	r2,zero
            {
                mtCOVERAGE_TEST_MARKER();
            }
        }
    } /*lint -restore */
}
 4001fa8:	e037883a 	mov	sp,fp
 4001fac:	dfc00117 	ldw	ra,4(sp)
 4001fb0:	df000017 	ldw	fp,0(sp)
 4001fb4:	dec00204 	addi	sp,sp,8
 4001fb8:	f800283a 	ret

04001fbc <xQueuePeek>:
/*-----------------------------------------------------------*/

BaseType_t xQueuePeek( QueueHandle_t xQueue,
                       void * const pvBuffer,
                       TickType_t xTicksToWait )
{
 4001fbc:	defff504 	addi	sp,sp,-44
 4001fc0:	dfc00a15 	stw	ra,40(sp)
 4001fc4:	df000915 	stw	fp,36(sp)
 4001fc8:	df000904 	addi	fp,sp,36
 4001fcc:	e13ff915 	stw	r4,-28(fp)
 4001fd0:	e17ff815 	stw	r5,-32(fp)
 4001fd4:	e1bff715 	stw	r6,-36(fp)
    BaseType_t xEntryTimeSet = pdFALSE;
 4001fd8:	e03fff15 	stw	zero,-4(fp)
    TimeOut_t xTimeOut;
    int8_t * pcOriginalReadPosition;
    Queue_t * const pxQueue = xQueue;
 4001fdc:	e0bff917 	ldw	r2,-28(fp)
 4001fe0:	e0bffe15 	stw	r2,-8(fp)
    /*lint -save -e904  This function relaxes the coding standard somewhat to
     * allow return statements within the function itself.  This is done in the
     * interest of execution time efficiency. */
    for( ; ; )
    {
        taskENTER_CRITICAL();
 4001fe4:	4005f7c0 	call	4005f7c <vTaskEnterCritical>
        {
            const UBaseType_t uxMessagesWaiting = pxQueue->uxMessagesWaiting;
 4001fe8:	e0bffe17 	ldw	r2,-8(fp)
 4001fec:	10800e17 	ldw	r2,56(r2)
 4001ff0:	e0bffd15 	stw	r2,-12(fp)

            /* Is there data in the queue now?  To be running the calling task
             * must be the highest priority task wanting to access the queue. */
            if( uxMessagesWaiting > ( UBaseType_t ) 0 )
 4001ff4:	e0bffd17 	ldw	r2,-12(fp)
 4001ff8:	10001526 	beq	r2,zero,4002050 <xQueuePeek+0x94>
            {
                /* Remember the read position so it can be reset after the data
                 * is read from the queue as this function is only peeking the
                 * data, not removing it. */
                pcOriginalReadPosition = pxQueue->u.xQueue.pcReadFrom;
 4001ffc:	e0bffe17 	ldw	r2,-8(fp)
 4002000:	10800317 	ldw	r2,12(r2)
 4002004:	e0bffc15 	stw	r2,-16(fp)

                prvCopyDataFromQueue( pxQueue, pvBuffer );
 4002008:	e17ff817 	ldw	r5,-32(fp)
 400200c:	e13ffe17 	ldw	r4,-8(fp)
 4002010:	40025c40 	call	40025c4 <prvCopyDataFromQueue>
                traceQUEUE_PEEK( pxQueue );

                /* The data is not being removed, so reset the read pointer. */
                pxQueue->u.xQueue.pcReadFrom = pcOriginalReadPosition;
 4002014:	e0bffe17 	ldw	r2,-8(fp)
 4002018:	e0fffc17 	ldw	r3,-16(fp)
 400201c:	10c00315 	stw	r3,12(r2)

                /* The data is being left in the queue, so see if there are
                 * any other tasks waiting for the data. */
                if( listLIST_IS_EMPTY( &( pxQueue->xTasksWaitingToReceive ) ) == pdFALSE )
 4002020:	e0bffe17 	ldw	r2,-8(fp)
 4002024:	10800917 	ldw	r2,36(r2)
 4002028:	10000626 	beq	r2,zero,4002044 <xQueuePeek+0x88>
                {
                    if( xTaskRemoveFromEventList( &( pxQueue->xTasksWaitingToReceive ) ) != pdFALSE )
 400202c:	e0bffe17 	ldw	r2,-8(fp)
 4002030:	10800904 	addi	r2,r2,36
 4002034:	1009883a 	mov	r4,r2
 4002038:	400502c0 	call	400502c <xTaskRemoveFromEventList>
 400203c:	10000126 	beq	r2,zero,4002044 <xQueuePeek+0x88>
                    {
                        /* The task waiting has a higher priority than this task. */
                        queueYIELD_IF_USING_PREEMPTION();
 4002040:	003b683a 	trap	0
                else
                {
                    mtCOVERAGE_TEST_MARKER();
                }

                taskEXIT_CRITICAL();
 4002044:	4005fd00 	call	4005fd0 <vTaskExitCritical>
                return pdPASS;
 4002048:	00800044 	movi	r2,1
 400204c:	00004206 	br	4002158 <xQueuePeek+0x19c>
            }
            else
            {
                if( xTicksToWait == ( TickType_t ) 0 )
 4002050:	e0bff717 	ldw	r2,-36(fp)
 4002054:	1000031e 	bne	r2,zero,4002064 <xQueuePeek+0xa8>
                {
                    /* The queue was empty and no block time is specified (or
                     * the block time has expired) so leave now. */
                    taskEXIT_CRITICAL();
 4002058:	4005fd00 	call	4005fd0 <vTaskExitCritical>
                    traceQUEUE_PEEK_FAILED( pxQueue );
                    return errQUEUE_EMPTY;
 400205c:	0005883a 	mov	r2,zero
 4002060:	00003d06 	br	4002158 <xQueuePeek+0x19c>
                }
                else if( xEntryTimeSet == pdFALSE )
 4002064:	e0bfff17 	ldw	r2,-4(fp)
 4002068:	1000051e 	bne	r2,zero,4002080 <xQueuePeek+0xc4>
                {
                    /* The queue was empty and a block time was specified so
                     * configure the timeout structure ready to enter the blocked
                     * state. */
                    vTaskInternalSetTimeOutState( &xTimeOut );
 400206c:	e0bffa04 	addi	r2,fp,-24
 4002070:	1009883a 	mov	r4,r2
 4002074:	40055980 	call	4005598 <vTaskInternalSetTimeOutState>
                    xEntryTimeSet = pdTRUE;
 4002078:	00800044 	movi	r2,1
 400207c:	e0bfff15 	stw	r2,-4(fp)
                    /* Entry time was already set. */
                    mtCOVERAGE_TEST_MARKER();
                }
            }
        }
        taskEXIT_CRITICAL();
 4002080:	4005fd00 	call	4005fd0 <vTaskExitCritical>

        /* Interrupts and other tasks can send to and receive from the queue
         * now that the critical section has been exited. */

        vTaskSuspendAll();
 4002084:	40046f00 	call	40046f0 <vTaskSuspendAll>
        prvLockQueue( pxQueue );
 4002088:	4005f7c0 	call	4005f7c <vTaskEnterCritical>
 400208c:	e0bffe17 	ldw	r2,-8(fp)
 4002090:	10801103 	ldbu	r2,68(r2)
 4002094:	10803fcc 	andi	r2,r2,255
 4002098:	1080201c 	xori	r2,r2,128
 400209c:	10bfe004 	addi	r2,r2,-128
 40020a0:	10bfffd8 	cmpnei	r2,r2,-1
 40020a4:	1000021e 	bne	r2,zero,40020b0 <xQueuePeek+0xf4>
 40020a8:	e0bffe17 	ldw	r2,-8(fp)
 40020ac:	10001105 	stb	zero,68(r2)
 40020b0:	e0bffe17 	ldw	r2,-8(fp)
 40020b4:	10801143 	ldbu	r2,69(r2)
 40020b8:	10803fcc 	andi	r2,r2,255
 40020bc:	1080201c 	xori	r2,r2,128
 40020c0:	10bfe004 	addi	r2,r2,-128
 40020c4:	10bfffd8 	cmpnei	r2,r2,-1
 40020c8:	1000021e 	bne	r2,zero,40020d4 <xQueuePeek+0x118>
 40020cc:	e0bffe17 	ldw	r2,-8(fp)
 40020d0:	10001145 	stb	zero,69(r2)
 40020d4:	4005fd00 	call	4005fd0 <vTaskExitCritical>

        /* Update the timeout state to see if it has expired yet. */
        if( xTaskCheckForTimeOut( &xTimeOut, &xTicksToWait ) == pdFALSE )
 40020d8:	e0fff704 	addi	r3,fp,-36
 40020dc:	e0bffa04 	addi	r2,fp,-24
 40020e0:	180b883a 	mov	r5,r3
 40020e4:	1009883a 	mov	r4,r2
 40020e8:	40055d40 	call	40055d4 <xTaskCheckForTimeOut>
 40020ec:	1000131e 	bne	r2,zero,400213c <xQueuePeek+0x180>
        {
            /* Timeout has not expired yet, check to see if there is data in the
            * queue now, and if not enter the Blocked state to wait for data. */
            if( prvIsQueueEmpty( pxQueue ) != pdFALSE )
 40020f0:	e13ffe17 	ldw	r4,-8(fp)
 40020f4:	40027540 	call	4002754 <prvIsQueueEmpty>
 40020f8:	10000c26 	beq	r2,zero,400212c <xQueuePeek+0x170>
            {
                traceBLOCKING_ON_QUEUE_PEEK( pxQueue );
                vTaskPlaceOnEventList( &( pxQueue->xTasksWaitingToReceive ), xTicksToWait );
 40020fc:	e0bffe17 	ldw	r2,-8(fp)
 4002100:	10800904 	addi	r2,r2,36
 4002104:	e0fff717 	ldw	r3,-36(fp)
 4002108:	180b883a 	mov	r5,r3
 400210c:	1009883a 	mov	r4,r2
 4002110:	4004f200 	call	4004f20 <vTaskPlaceOnEventList>
                prvUnlockQueue( pxQueue );
 4002114:	e13ffe17 	ldw	r4,-8(fp)
 4002118:	40026600 	call	4002660 <prvUnlockQueue>

                if( xTaskResumeAll() == pdFALSE )
 400211c:	400471c0 	call	400471c <xTaskResumeAll>
 4002120:	103fb01e 	bne	r2,zero,4001fe4 <xQueuePeek+0x28>
                {
                    portYIELD_WITHIN_API();
 4002124:	003b683a 	trap	0
 4002128:	003fae06 	br	4001fe4 <xQueuePeek+0x28>
            }
            else
            {
                /* There is data in the queue now, so don't enter the blocked
                 * state, instead return to try and obtain the data. */
                prvUnlockQueue( pxQueue );
 400212c:	e13ffe17 	ldw	r4,-8(fp)
 4002130:	40026600 	call	4002660 <prvUnlockQueue>
                ( void ) xTaskResumeAll();
 4002134:	400471c0 	call	400471c <xTaskResumeAll>
 4002138:	003faa06 	br	4001fe4 <xQueuePeek+0x28>
        }
        else
        {
            /* The timeout has expired.  If there is still no data in the queue
             * exit, otherwise go back and try to read the data again. */
            prvUnlockQueue( pxQueue );
 400213c:	e13ffe17 	ldw	r4,-8(fp)
 4002140:	40026600 	call	4002660 <prvUnlockQueue>
            ( void ) xTaskResumeAll();
 4002144:	400471c0 	call	400471c <xTaskResumeAll>

            if( prvIsQueueEmpty( pxQueue ) != pdFALSE )
 4002148:	e13ffe17 	ldw	r4,-8(fp)
 400214c:	40027540 	call	4002754 <prvIsQueueEmpty>
 4002150:	103fa426 	beq	r2,zero,4001fe4 <xQueuePeek+0x28>
            {
                traceQUEUE_PEEK_FAILED( pxQueue );
                return errQUEUE_EMPTY;
 4002154:	0005883a 	mov	r2,zero
            {
                mtCOVERAGE_TEST_MARKER();
            }
        }
    } /*lint -restore */
}
 4002158:	e037883a 	mov	sp,fp
 400215c:	dfc00117 	ldw	ra,4(sp)
 4002160:	df000017 	ldw	fp,0(sp)
 4002164:	dec00204 	addi	sp,sp,8
 4002168:	f800283a 	ret

0400216c <xQueueReceiveFromISR>:
/*-----------------------------------------------------------*/

BaseType_t xQueueReceiveFromISR( QueueHandle_t xQueue,
                                 void * const pvBuffer,
                                 BaseType_t * const pxHigherPriorityTaskWoken )
{
 400216c:	defff504 	addi	sp,sp,-44
 4002170:	dfc00a15 	stw	ra,40(sp)
 4002174:	df000915 	stw	fp,36(sp)
 4002178:	df000904 	addi	fp,sp,36
 400217c:	e13ff915 	stw	r4,-28(fp)
 4002180:	e17ff815 	stw	r5,-32(fp)
 4002184:	e1bff715 	stw	r6,-36(fp)
    BaseType_t xReturn;
    UBaseType_t uxSavedInterruptStatus;
    Queue_t * const pxQueue = xQueue;
 4002188:	e0bff917 	ldw	r2,-28(fp)
 400218c:	e0bffe15 	stw	r2,-8(fp)
     * safe API to ensure interrupt entry is as fast and as simple as possible.
     * More information (albeit Cortex-M specific) is provided on the following
     * link: https://www.FreeRTOS.org/RTOS-Cortex-M3-M4.html */
    portASSERT_IF_INTERRUPT_PRIORITY_INVALID();

    uxSavedInterruptStatus = portSET_INTERRUPT_MASK_FROM_ISR();
 4002190:	e03ffd15 	stw	zero,-12(fp)
    {
        const UBaseType_t uxMessagesWaiting = pxQueue->uxMessagesWaiting;
 4002194:	e0bffe17 	ldw	r2,-8(fp)
 4002198:	10800e17 	ldw	r2,56(r2)
 400219c:	e0bffc15 	stw	r2,-16(fp)

        /* Cannot block in an ISR, so check there is data available. */
        if( uxMessagesWaiting > ( UBaseType_t ) 0 )
 40021a0:	e0bffc17 	ldw	r2,-16(fp)
 40021a4:	10002826 	beq	r2,zero,4002248 <xQueueReceiveFromISR+0xdc>
        {
            const int8_t cRxLock = pxQueue->cRxLock;
 40021a8:	e0bffe17 	ldw	r2,-8(fp)
 40021ac:	10801103 	ldbu	r2,68(r2)
 40021b0:	e0bffbc5 	stb	r2,-17(fp)

            traceQUEUE_RECEIVE_FROM_ISR( pxQueue );

            prvCopyDataFromQueue( pxQueue, pvBuffer );
 40021b4:	e17ff817 	ldw	r5,-32(fp)
 40021b8:	e13ffe17 	ldw	r4,-8(fp)
 40021bc:	40025c40 	call	40025c4 <prvCopyDataFromQueue>
            pxQueue->uxMessagesWaiting = uxMessagesWaiting - ( UBaseType_t ) 1;
 40021c0:	e0bffc17 	ldw	r2,-16(fp)
 40021c4:	10ffffc4 	addi	r3,r2,-1
 40021c8:	e0bffe17 	ldw	r2,-8(fp)
 40021cc:	10c00e15 	stw	r3,56(r2)

            /* If the queue is locked the event list will not be modified.
             * Instead update the lock count so the task that unlocks the queue
             * will know that an ISR has removed data while the queue was
             * locked. */
            if( cRxLock == queueUNLOCKED )
 40021d0:	e0bffbc7 	ldb	r2,-17(fp)
 40021d4:	10bfffd8 	cmpnei	r2,r2,-1
 40021d8:	10000e1e 	bne	r2,zero,4002214 <xQueueReceiveFromISR+0xa8>
            {
                if( listLIST_IS_EMPTY( &( pxQueue->xTasksWaitingToSend ) ) == pdFALSE )
 40021dc:	e0bffe17 	ldw	r2,-8(fp)
 40021e0:	10800417 	ldw	r2,16(r2)
 40021e4:	10001526 	beq	r2,zero,400223c <xQueueReceiveFromISR+0xd0>
                {
                    if( xTaskRemoveFromEventList( &( pxQueue->xTasksWaitingToSend ) ) != pdFALSE )
 40021e8:	e0bffe17 	ldw	r2,-8(fp)
 40021ec:	10800404 	addi	r2,r2,16
 40021f0:	1009883a 	mov	r4,r2
 40021f4:	400502c0 	call	400502c <xTaskRemoveFromEventList>
 40021f8:	10001026 	beq	r2,zero,400223c <xQueueReceiveFromISR+0xd0>
                    {
                        /* The task waiting has a higher priority than us so
                         * force a context switch. */
                        if( pxHigherPriorityTaskWoken != NULL )
 40021fc:	e0bff717 	ldw	r2,-36(fp)
 4002200:	10000e26 	beq	r2,zero,400223c <xQueueReceiveFromISR+0xd0>
                        {
                            *pxHigherPriorityTaskWoken = pdTRUE;
 4002204:	e0bff717 	ldw	r2,-36(fp)
 4002208:	00c00044 	movi	r3,1
 400220c:	10c00015 	stw	r3,0(r2)
 4002210:	00000a06 	br	400223c <xQueueReceiveFromISR+0xd0>
            }
            else
            {
                /* Increment the lock count so the task that unlocks the queue
                 * knows that data was removed while it was locked. */
                prvIncrementQueueRxLock( pxQueue, cRxLock );
 4002214:	4004a440 	call	4004a44 <uxTaskGetNumberOfTasks>
 4002218:	e0bffa15 	stw	r2,-24(fp)
 400221c:	e0fffbc7 	ldb	r3,-17(fp)
 4002220:	e0bffa17 	ldw	r2,-24(fp)
 4002224:	1880052e 	bgeu	r3,r2,400223c <xQueueReceiveFromISR+0xd0>
 4002228:	e0bffbc3 	ldbu	r2,-17(fp)
 400222c:	10800044 	addi	r2,r2,1
 4002230:	1007883a 	mov	r3,r2
 4002234:	e0bffe17 	ldw	r2,-8(fp)
 4002238:	10c01105 	stb	r3,68(r2)
            }

            xReturn = pdPASS;
 400223c:	00800044 	movi	r2,1
 4002240:	e0bfff15 	stw	r2,-4(fp)
 4002244:	00000106 	br	400224c <xQueueReceiveFromISR+0xe0>
        }
        else
        {
            xReturn = pdFAIL;
 4002248:	e03fff15 	stw	zero,-4(fp)
            traceQUEUE_RECEIVE_FROM_ISR_FAILED( pxQueue );
        }
    }
    portCLEAR_INTERRUPT_MASK_FROM_ISR( uxSavedInterruptStatus );

    return xReturn;
 400224c:	e0bfff17 	ldw	r2,-4(fp)
}
 4002250:	e037883a 	mov	sp,fp
 4002254:	dfc00117 	ldw	ra,4(sp)
 4002258:	df000017 	ldw	fp,0(sp)
 400225c:	dec00204 	addi	sp,sp,8
 4002260:	f800283a 	ret

04002264 <xQueuePeekFromISR>:
/*-----------------------------------------------------------*/

BaseType_t xQueuePeekFromISR( QueueHandle_t xQueue,
                              void * const pvBuffer )
{
 4002264:	defff804 	addi	sp,sp,-32
 4002268:	dfc00715 	stw	ra,28(sp)
 400226c:	df000615 	stw	fp,24(sp)
 4002270:	df000604 	addi	fp,sp,24
 4002274:	e13ffb15 	stw	r4,-20(fp)
 4002278:	e17ffa15 	stw	r5,-24(fp)
    BaseType_t xReturn;
    UBaseType_t uxSavedInterruptStatus;
    int8_t * pcOriginalReadPosition;
    Queue_t * const pxQueue = xQueue;
 400227c:	e0bffb17 	ldw	r2,-20(fp)
 4002280:	e0bffe15 	stw	r2,-8(fp)
     * safe API to ensure interrupt entry is as fast and as simple as possible.
     * More information (albeit Cortex-M specific) is provided on the following
     * link: https://www.FreeRTOS.org/RTOS-Cortex-M3-M4.html */
    portASSERT_IF_INTERRUPT_PRIORITY_INVALID();

    uxSavedInterruptStatus = portSET_INTERRUPT_MASK_FROM_ISR();
 4002284:	e03ffd15 	stw	zero,-12(fp)
    {
        /* Cannot block in an ISR, so check there is data available. */
        if( pxQueue->uxMessagesWaiting > ( UBaseType_t ) 0 )
 4002288:	e0bffe17 	ldw	r2,-8(fp)
 400228c:	10800e17 	ldw	r2,56(r2)
 4002290:	10000c26 	beq	r2,zero,40022c4 <xQueuePeekFromISR+0x60>
        {
            traceQUEUE_PEEK_FROM_ISR( pxQueue );

            /* Remember the read position so it can be reset as nothing is
             * actually being removed from the queue. */
            pcOriginalReadPosition = pxQueue->u.xQueue.pcReadFrom;
 4002294:	e0bffe17 	ldw	r2,-8(fp)
 4002298:	10800317 	ldw	r2,12(r2)
 400229c:	e0bffc15 	stw	r2,-16(fp)
            prvCopyDataFromQueue( pxQueue, pvBuffer );
 40022a0:	e17ffa17 	ldw	r5,-24(fp)
 40022a4:	e13ffe17 	ldw	r4,-8(fp)
 40022a8:	40025c40 	call	40025c4 <prvCopyDataFromQueue>
            pxQueue->u.xQueue.pcReadFrom = pcOriginalReadPosition;
 40022ac:	e0bffe17 	ldw	r2,-8(fp)
 40022b0:	e0fffc17 	ldw	r3,-16(fp)
 40022b4:	10c00315 	stw	r3,12(r2)

            xReturn = pdPASS;
 40022b8:	00800044 	movi	r2,1
 40022bc:	e0bfff15 	stw	r2,-4(fp)
 40022c0:	00000106 	br	40022c8 <xQueuePeekFromISR+0x64>
        }
        else
        {
            xReturn = pdFAIL;
 40022c4:	e03fff15 	stw	zero,-4(fp)
            traceQUEUE_PEEK_FROM_ISR_FAILED( pxQueue );
        }
    }
    portCLEAR_INTERRUPT_MASK_FROM_ISR( uxSavedInterruptStatus );

    return xReturn;
 40022c8:	e0bfff17 	ldw	r2,-4(fp)
}
 40022cc:	e037883a 	mov	sp,fp
 40022d0:	dfc00117 	ldw	ra,4(sp)
 40022d4:	df000017 	ldw	fp,0(sp)
 40022d8:	dec00204 	addi	sp,sp,8
 40022dc:	f800283a 	ret

040022e0 <uxQueueMessagesWaiting>:
/*-----------------------------------------------------------*/

UBaseType_t uxQueueMessagesWaiting( const QueueHandle_t xQueue )
{
 40022e0:	defffc04 	addi	sp,sp,-16
 40022e4:	dfc00315 	stw	ra,12(sp)
 40022e8:	df000215 	stw	fp,8(sp)
 40022ec:	df000204 	addi	fp,sp,8
 40022f0:	e13ffe15 	stw	r4,-8(fp)
    UBaseType_t uxReturn;

    configASSERT( xQueue );

    taskENTER_CRITICAL();
 40022f4:	4005f7c0 	call	4005f7c <vTaskEnterCritical>
    {
        uxReturn = ( ( Queue_t * ) xQueue )->uxMessagesWaiting;
 40022f8:	e0bffe17 	ldw	r2,-8(fp)
 40022fc:	10800e17 	ldw	r2,56(r2)
 4002300:	e0bfff15 	stw	r2,-4(fp)
    }
    taskEXIT_CRITICAL();
 4002304:	4005fd00 	call	4005fd0 <vTaskExitCritical>

    return uxReturn;
 4002308:	e0bfff17 	ldw	r2,-4(fp)
} /*lint !e818 Pointer cannot be declared const as xQueue is a typedef not pointer. */
 400230c:	e037883a 	mov	sp,fp
 4002310:	dfc00117 	ldw	ra,4(sp)
 4002314:	df000017 	ldw	fp,0(sp)
 4002318:	dec00204 	addi	sp,sp,8
 400231c:	f800283a 	ret

04002320 <uxQueueSpacesAvailable>:
/*-----------------------------------------------------------*/

UBaseType_t uxQueueSpacesAvailable( const QueueHandle_t xQueue )
{
 4002320:	defffb04 	addi	sp,sp,-20
 4002324:	dfc00415 	stw	ra,16(sp)
 4002328:	df000315 	stw	fp,12(sp)
 400232c:	df000304 	addi	fp,sp,12
 4002330:	e13ffd15 	stw	r4,-12(fp)
    UBaseType_t uxReturn;
    Queue_t * const pxQueue = xQueue;
 4002334:	e0bffd17 	ldw	r2,-12(fp)
 4002338:	e0bfff15 	stw	r2,-4(fp)

    configASSERT( pxQueue );

    taskENTER_CRITICAL();
 400233c:	4005f7c0 	call	4005f7c <vTaskEnterCritical>
    {
        uxReturn = pxQueue->uxLength - pxQueue->uxMessagesWaiting;
 4002340:	e0bfff17 	ldw	r2,-4(fp)
 4002344:	10c00f17 	ldw	r3,60(r2)
 4002348:	e0bfff17 	ldw	r2,-4(fp)
 400234c:	10800e17 	ldw	r2,56(r2)
 4002350:	1885c83a 	sub	r2,r3,r2
 4002354:	e0bffe15 	stw	r2,-8(fp)
    }
    taskEXIT_CRITICAL();
 4002358:	4005fd00 	call	4005fd0 <vTaskExitCritical>

    return uxReturn;
 400235c:	e0bffe17 	ldw	r2,-8(fp)
} /*lint !e818 Pointer cannot be declared const as xQueue is a typedef not pointer. */
 4002360:	e037883a 	mov	sp,fp
 4002364:	dfc00117 	ldw	ra,4(sp)
 4002368:	df000017 	ldw	fp,0(sp)
 400236c:	dec00204 	addi	sp,sp,8
 4002370:	f800283a 	ret

04002374 <uxQueueMessagesWaitingFromISR>:
/*-----------------------------------------------------------*/

UBaseType_t uxQueueMessagesWaitingFromISR( const QueueHandle_t xQueue )
{
 4002374:	defffc04 	addi	sp,sp,-16
 4002378:	df000315 	stw	fp,12(sp)
 400237c:	df000304 	addi	fp,sp,12
 4002380:	e13ffd15 	stw	r4,-12(fp)
    UBaseType_t uxReturn;
    Queue_t * const pxQueue = xQueue;
 4002384:	e0bffd17 	ldw	r2,-12(fp)
 4002388:	e0bfff15 	stw	r2,-4(fp)

    configASSERT( pxQueue );
    uxReturn = pxQueue->uxMessagesWaiting;
 400238c:	e0bfff17 	ldw	r2,-4(fp)
 4002390:	10800e17 	ldw	r2,56(r2)
 4002394:	e0bffe15 	stw	r2,-8(fp)

    return uxReturn;
 4002398:	e0bffe17 	ldw	r2,-8(fp)
} /*lint !e818 Pointer cannot be declared const as xQueue is a typedef not pointer. */
 400239c:	e037883a 	mov	sp,fp
 40023a0:	df000017 	ldw	fp,0(sp)
 40023a4:	dec00104 	addi	sp,sp,4
 40023a8:	f800283a 	ret

040023ac <vQueueDelete>:
/*-----------------------------------------------------------*/

void vQueueDelete( QueueHandle_t xQueue )
{
 40023ac:	defffc04 	addi	sp,sp,-16
 40023b0:	dfc00315 	stw	ra,12(sp)
 40023b4:	df000215 	stw	fp,8(sp)
 40023b8:	df000204 	addi	fp,sp,8
 40023bc:	e13ffe15 	stw	r4,-8(fp)
    Queue_t * const pxQueue = xQueue;
 40023c0:	e0bffe17 	ldw	r2,-8(fp)
 40023c4:	e0bfff15 	stw	r2,-4(fp)

    #if ( ( configSUPPORT_DYNAMIC_ALLOCATION == 1 ) && ( configSUPPORT_STATIC_ALLOCATION == 0 ) )
    {
        /* The queue can only have been allocated dynamically - free it
         * again. */
        vPortFree( pxQueue );
 40023c8:	e13fff17 	ldw	r4,-4(fp)
 40023cc:	40011240 	call	4001124 <vPortFree>
        /* The queue must have been statically allocated, so is not going to be
         * deleted.  Avoid compiler warnings about the unused parameter. */
        ( void ) pxQueue;
    }
    #endif /* configSUPPORT_DYNAMIC_ALLOCATION */
}
 40023d0:	0001883a 	nop
 40023d4:	e037883a 	mov	sp,fp
 40023d8:	dfc00117 	ldw	ra,4(sp)
 40023dc:	df000017 	ldw	fp,0(sp)
 40023e0:	dec00204 	addi	sp,sp,8
 40023e4:	f800283a 	ret

040023e8 <prvGetDisinheritPriorityAfterTimeout>:
/*-----------------------------------------------------------*/

#if ( configUSE_MUTEXES == 1 )

    static UBaseType_t prvGetDisinheritPriorityAfterTimeout( const Queue_t * const pxQueue )
    {
 40023e8:	defffd04 	addi	sp,sp,-12
 40023ec:	df000215 	stw	fp,8(sp)
 40023f0:	df000204 	addi	fp,sp,8
 40023f4:	e13ffe15 	stw	r4,-8(fp)
         * priority, but the waiting task times out, then the holder should
         * disinherit the priority - but only down to the highest priority of any
         * other tasks that are waiting for the same mutex.  For this purpose,
         * return the priority of the highest priority task that is waiting for the
         * mutex. */
        if( listCURRENT_LIST_LENGTH( &( pxQueue->xTasksWaitingToReceive ) ) > 0U )
 40023f8:	e0bffe17 	ldw	r2,-8(fp)
 40023fc:	10800917 	ldw	r2,36(r2)
 4002400:	10000726 	beq	r2,zero,4002420 <prvGetDisinheritPriorityAfterTimeout+0x38>
        {
            uxHighestPriorityOfWaitingTasks = ( UBaseType_t ) configMAX_PRIORITIES - ( UBaseType_t ) listGET_ITEM_VALUE_OF_HEAD_ENTRY( &( pxQueue->xTasksWaitingToReceive ) );
 4002404:	e0bffe17 	ldw	r2,-8(fp)
 4002408:	10800c17 	ldw	r2,48(r2)
 400240c:	10800017 	ldw	r2,0(r2)
 4002410:	00c00144 	movi	r3,5
 4002414:	1885c83a 	sub	r2,r3,r2
 4002418:	e0bfff15 	stw	r2,-4(fp)
 400241c:	00000106 	br	4002424 <prvGetDisinheritPriorityAfterTimeout+0x3c>
        }
        else
        {
            uxHighestPriorityOfWaitingTasks = tskIDLE_PRIORITY;
 4002420:	e03fff15 	stw	zero,-4(fp)
        }

        return uxHighestPriorityOfWaitingTasks;
 4002424:	e0bfff17 	ldw	r2,-4(fp)
    }
 4002428:	e037883a 	mov	sp,fp
 400242c:	df000017 	ldw	fp,0(sp)
 4002430:	dec00104 	addi	sp,sp,4
 4002434:	f800283a 	ret

04002438 <prvCopyDataToQueue>:
/*-----------------------------------------------------------*/

static BaseType_t prvCopyDataToQueue( Queue_t * const pxQueue,
                                      const void * pvItemToQueue,
                                      const BaseType_t xPosition )
{
 4002438:	defff904 	addi	sp,sp,-28
 400243c:	dfc00615 	stw	ra,24(sp)
 4002440:	df000515 	stw	fp,20(sp)
 4002444:	df000504 	addi	fp,sp,20
 4002448:	e13ffd15 	stw	r4,-12(fp)
 400244c:	e17ffc15 	stw	r5,-16(fp)
 4002450:	e1bffb15 	stw	r6,-20(fp)
    BaseType_t xReturn = pdFALSE;
 4002454:	e03fff15 	stw	zero,-4(fp)
    UBaseType_t uxMessagesWaiting;

    /* This function is called from a critical section. */

    uxMessagesWaiting = pxQueue->uxMessagesWaiting;
 4002458:	e0bffd17 	ldw	r2,-12(fp)
 400245c:	10800e17 	ldw	r2,56(r2)
 4002460:	e0bffe15 	stw	r2,-8(fp)

    if( pxQueue->uxItemSize == ( UBaseType_t ) 0 )
 4002464:	e0bffd17 	ldw	r2,-12(fp)
 4002468:	10801017 	ldw	r2,64(r2)
 400246c:	10000b1e 	bne	r2,zero,400249c <prvCopyDataToQueue+0x64>
    {
        #if ( configUSE_MUTEXES == 1 )
        {
            if( pxQueue->uxQueueType == queueQUEUE_IS_MUTEX )
 4002470:	e0bffd17 	ldw	r2,-12(fp)
 4002474:	10800017 	ldw	r2,0(r2)
 4002478:	1000481e 	bne	r2,zero,400259c <prvCopyDataToQueue+0x164>
            {
                /* The mutex is no longer being held. */
                xReturn = xTaskPriorityDisinherit( pxQueue->u.xSemaphore.xMutexHolder );
 400247c:	e0bffd17 	ldw	r2,-12(fp)
 4002480:	10800217 	ldw	r2,8(r2)
 4002484:	1009883a 	mov	r4,r2
 4002488:	4005bc00 	call	4005bc0 <xTaskPriorityDisinherit>
 400248c:	e0bfff15 	stw	r2,-4(fp)
                pxQueue->u.xSemaphore.xMutexHolder = NULL;
 4002490:	e0bffd17 	ldw	r2,-12(fp)
 4002494:	10000215 	stw	zero,8(r2)
 4002498:	00004006 	br	400259c <prvCopyDataToQueue+0x164>
                mtCOVERAGE_TEST_MARKER();
            }
        }
        #endif /* configUSE_MUTEXES */
    }
    else if( xPosition == queueSEND_TO_BACK )
 400249c:	e0bffb17 	ldw	r2,-20(fp)
 40024a0:	1000191e 	bne	r2,zero,4002508 <prvCopyDataToQueue+0xd0>
    {
        ( void ) memcpy( ( void * ) pxQueue->pcWriteTo, pvItemToQueue, ( size_t ) pxQueue->uxItemSize ); /*lint !e961 !e418 !e9087 MISRA exception as the casts are only redundant for some ports, plus previous logic ensures a null pointer can only be passed to memcpy() if the copy size is 0.  Cast to void required by function signature and safe as no alignment requirement and copy length specified in bytes. */
 40024a4:	e0bffd17 	ldw	r2,-12(fp)
 40024a8:	10c00117 	ldw	r3,4(r2)
 40024ac:	e0bffd17 	ldw	r2,-12(fp)
 40024b0:	10801017 	ldw	r2,64(r2)
 40024b4:	100d883a 	mov	r6,r2
 40024b8:	e17ffc17 	ldw	r5,-16(fp)
 40024bc:	1809883a 	mov	r4,r3
 40024c0:	40078800 	call	4007880 <memcpy>
        pxQueue->pcWriteTo += pxQueue->uxItemSize;                                                       /*lint !e9016 Pointer arithmetic on char types ok, especially in this use case where it is the clearest way of conveying intent. */
 40024c4:	e0bffd17 	ldw	r2,-12(fp)
 40024c8:	10c00117 	ldw	r3,4(r2)
 40024cc:	e0bffd17 	ldw	r2,-12(fp)
 40024d0:	10801017 	ldw	r2,64(r2)
 40024d4:	1887883a 	add	r3,r3,r2
 40024d8:	e0bffd17 	ldw	r2,-12(fp)
 40024dc:	10c00115 	stw	r3,4(r2)

        if( pxQueue->pcWriteTo >= pxQueue->u.xQueue.pcTail )                                             /*lint !e946 MISRA exception justified as comparison of pointers is the cleanest solution. */
 40024e0:	e0bffd17 	ldw	r2,-12(fp)
 40024e4:	10c00117 	ldw	r3,4(r2)
 40024e8:	e0bffd17 	ldw	r2,-12(fp)
 40024ec:	10800217 	ldw	r2,8(r2)
 40024f0:	18802a36 	bltu	r3,r2,400259c <prvCopyDataToQueue+0x164>
        {
            pxQueue->pcWriteTo = pxQueue->pcHead;
 40024f4:	e0bffd17 	ldw	r2,-12(fp)
 40024f8:	10c00017 	ldw	r3,0(r2)
 40024fc:	e0bffd17 	ldw	r2,-12(fp)
 4002500:	10c00115 	stw	r3,4(r2)
 4002504:	00002506 	br	400259c <prvCopyDataToQueue+0x164>
            mtCOVERAGE_TEST_MARKER();
        }
    }
    else
    {
        ( void ) memcpy( ( void * ) pxQueue->u.xQueue.pcReadFrom, pvItemToQueue, ( size_t ) pxQueue->uxItemSize ); /*lint !e961 !e9087 !e418 MISRA exception as the casts are only redundant for some ports.  Cast to void required by function signature and safe as no alignment requirement and copy length specified in bytes.  Assert checks null pointer only used when length is 0. */
 4002508:	e0bffd17 	ldw	r2,-12(fp)
 400250c:	10c00317 	ldw	r3,12(r2)
 4002510:	e0bffd17 	ldw	r2,-12(fp)
 4002514:	10801017 	ldw	r2,64(r2)
 4002518:	100d883a 	mov	r6,r2
 400251c:	e17ffc17 	ldw	r5,-16(fp)
 4002520:	1809883a 	mov	r4,r3
 4002524:	40078800 	call	4007880 <memcpy>
        pxQueue->u.xQueue.pcReadFrom -= pxQueue->uxItemSize;
 4002528:	e0bffd17 	ldw	r2,-12(fp)
 400252c:	10c00317 	ldw	r3,12(r2)
 4002530:	e0bffd17 	ldw	r2,-12(fp)
 4002534:	10801017 	ldw	r2,64(r2)
 4002538:	0085c83a 	sub	r2,zero,r2
 400253c:	1887883a 	add	r3,r3,r2
 4002540:	e0bffd17 	ldw	r2,-12(fp)
 4002544:	10c00315 	stw	r3,12(r2)

        if( pxQueue->u.xQueue.pcReadFrom < pxQueue->pcHead ) /*lint !e946 MISRA exception justified as comparison of pointers is the cleanest solution. */
 4002548:	e0bffd17 	ldw	r2,-12(fp)
 400254c:	10c00317 	ldw	r3,12(r2)
 4002550:	e0bffd17 	ldw	r2,-12(fp)
 4002554:	10800017 	ldw	r2,0(r2)
 4002558:	1880082e 	bgeu	r3,r2,400257c <prvCopyDataToQueue+0x144>
        {
            pxQueue->u.xQueue.pcReadFrom = ( pxQueue->u.xQueue.pcTail - pxQueue->uxItemSize );
 400255c:	e0bffd17 	ldw	r2,-12(fp)
 4002560:	10c00217 	ldw	r3,8(r2)
 4002564:	e0bffd17 	ldw	r2,-12(fp)
 4002568:	10801017 	ldw	r2,64(r2)
 400256c:	0085c83a 	sub	r2,zero,r2
 4002570:	1887883a 	add	r3,r3,r2
 4002574:	e0bffd17 	ldw	r2,-12(fp)
 4002578:	10c00315 	stw	r3,12(r2)
        else
        {
            mtCOVERAGE_TEST_MARKER();
        }

        if( xPosition == queueOVERWRITE )
 400257c:	e0bffb17 	ldw	r2,-20(fp)
 4002580:	10800098 	cmpnei	r2,r2,2
 4002584:	1000051e 	bne	r2,zero,400259c <prvCopyDataToQueue+0x164>
        {
            if( uxMessagesWaiting > ( UBaseType_t ) 0 )
 4002588:	e0bffe17 	ldw	r2,-8(fp)
 400258c:	10000326 	beq	r2,zero,400259c <prvCopyDataToQueue+0x164>
            {
                /* An item is not being added but overwritten, so subtract
                 * one from the recorded number of items in the queue so when
                 * one is added again below the number of recorded items remains
                 * correct. */
                --uxMessagesWaiting;
 4002590:	e0bffe17 	ldw	r2,-8(fp)
 4002594:	10bfffc4 	addi	r2,r2,-1
 4002598:	e0bffe15 	stw	r2,-8(fp)
        {
            mtCOVERAGE_TEST_MARKER();
        }
    }

    pxQueue->uxMessagesWaiting = uxMessagesWaiting + ( UBaseType_t ) 1;
 400259c:	e0bffe17 	ldw	r2,-8(fp)
 40025a0:	10c00044 	addi	r3,r2,1
 40025a4:	e0bffd17 	ldw	r2,-12(fp)
 40025a8:	10c00e15 	stw	r3,56(r2)

    return xReturn;
 40025ac:	e0bfff17 	ldw	r2,-4(fp)
}
 40025b0:	e037883a 	mov	sp,fp
 40025b4:	dfc00117 	ldw	ra,4(sp)
 40025b8:	df000017 	ldw	fp,0(sp)
 40025bc:	dec00204 	addi	sp,sp,8
 40025c0:	f800283a 	ret

040025c4 <prvCopyDataFromQueue>:
/*-----------------------------------------------------------*/

static void prvCopyDataFromQueue( Queue_t * const pxQueue,
                                  void * const pvBuffer )
{
 40025c4:	defffc04 	addi	sp,sp,-16
 40025c8:	dfc00315 	stw	ra,12(sp)
 40025cc:	df000215 	stw	fp,8(sp)
 40025d0:	df000204 	addi	fp,sp,8
 40025d4:	e13fff15 	stw	r4,-4(fp)
 40025d8:	e17ffe15 	stw	r5,-8(fp)
    if( pxQueue->uxItemSize != ( UBaseType_t ) 0 )
 40025dc:	e0bfff17 	ldw	r2,-4(fp)
 40025e0:	10801017 	ldw	r2,64(r2)
 40025e4:	10001826 	beq	r2,zero,4002648 <prvCopyDataFromQueue+0x84>
    {
        pxQueue->u.xQueue.pcReadFrom += pxQueue->uxItemSize;           /*lint !e9016 Pointer arithmetic on char types ok, especially in this use case where it is the clearest way of conveying intent. */
 40025e8:	e0bfff17 	ldw	r2,-4(fp)
 40025ec:	10c00317 	ldw	r3,12(r2)
 40025f0:	e0bfff17 	ldw	r2,-4(fp)
 40025f4:	10801017 	ldw	r2,64(r2)
 40025f8:	1887883a 	add	r3,r3,r2
 40025fc:	e0bfff17 	ldw	r2,-4(fp)
 4002600:	10c00315 	stw	r3,12(r2)

        if( pxQueue->u.xQueue.pcReadFrom >= pxQueue->u.xQueue.pcTail ) /*lint !e946 MISRA exception justified as use of the relational operator is the cleanest solutions. */
 4002604:	e0bfff17 	ldw	r2,-4(fp)
 4002608:	10c00317 	ldw	r3,12(r2)
 400260c:	e0bfff17 	ldw	r2,-4(fp)
 4002610:	10800217 	ldw	r2,8(r2)
 4002614:	18800436 	bltu	r3,r2,4002628 <prvCopyDataFromQueue+0x64>
        {
            pxQueue->u.xQueue.pcReadFrom = pxQueue->pcHead;
 4002618:	e0bfff17 	ldw	r2,-4(fp)
 400261c:	10c00017 	ldw	r3,0(r2)
 4002620:	e0bfff17 	ldw	r2,-4(fp)
 4002624:	10c00315 	stw	r3,12(r2)
        else
        {
            mtCOVERAGE_TEST_MARKER();
        }

        ( void ) memcpy( ( void * ) pvBuffer, ( void * ) pxQueue->u.xQueue.pcReadFrom, ( size_t ) pxQueue->uxItemSize ); /*lint !e961 !e418 !e9087 MISRA exception as the casts are only redundant for some ports.  Also previous logic ensures a null pointer can only be passed to memcpy() when the count is 0.  Cast to void required by function signature and safe as no alignment requirement and copy length specified in bytes. */
 4002628:	e0bfff17 	ldw	r2,-4(fp)
 400262c:	10c00317 	ldw	r3,12(r2)
 4002630:	e0bfff17 	ldw	r2,-4(fp)
 4002634:	10801017 	ldw	r2,64(r2)
 4002638:	100d883a 	mov	r6,r2
 400263c:	180b883a 	mov	r5,r3
 4002640:	e13ffe17 	ldw	r4,-8(fp)
 4002644:	40078800 	call	4007880 <memcpy>
    }
}
 4002648:	0001883a 	nop
 400264c:	e037883a 	mov	sp,fp
 4002650:	dfc00117 	ldw	ra,4(sp)
 4002654:	df000017 	ldw	fp,0(sp)
 4002658:	dec00204 	addi	sp,sp,8
 400265c:	f800283a 	ret

04002660 <prvUnlockQueue>:
/*-----------------------------------------------------------*/

static void prvUnlockQueue( Queue_t * const pxQueue )
{
 4002660:	defffc04 	addi	sp,sp,-16
 4002664:	dfc00315 	stw	ra,12(sp)
 4002668:	df000215 	stw	fp,8(sp)
 400266c:	df000204 	addi	fp,sp,8
 4002670:	e13ffe15 	stw	r4,-8(fp)

    /* The lock counts contains the number of extra data items placed or
     * removed from the queue while the queue was locked.  When a queue is
     * locked items can be added or removed, but the event lists cannot be
     * updated. */
    taskENTER_CRITICAL();
 4002674:	4005f7c0 	call	4005f7c <vTaskEnterCritical>
    {
        int8_t cTxLock = pxQueue->cTxLock;
 4002678:	e0bffe17 	ldw	r2,-8(fp)
 400267c:	10801143 	ldbu	r2,69(r2)
 4002680:	e0bfffc5 	stb	r2,-1(fp)

        /* See if data was added to the queue while it was locked. */
        while( cTxLock > queueLOCKED_UNMODIFIED )
 4002684:	00000c06 	br	40026b8 <prvUnlockQueue+0x58>
            }
            #else /* configUSE_QUEUE_SETS */
            {
                /* Tasks that are removed from the event list will get added to
                 * the pending ready list as the scheduler is still suspended. */
                if( listLIST_IS_EMPTY( &( pxQueue->xTasksWaitingToReceive ) ) == pdFALSE )
 4002688:	e0bffe17 	ldw	r2,-8(fp)
 400268c:	10800917 	ldw	r2,36(r2)
 4002690:	10000c26 	beq	r2,zero,40026c4 <prvUnlockQueue+0x64>
                {
                    if( xTaskRemoveFromEventList( &( pxQueue->xTasksWaitingToReceive ) ) != pdFALSE )
 4002694:	e0bffe17 	ldw	r2,-8(fp)
 4002698:	10800904 	addi	r2,r2,36
 400269c:	1009883a 	mov	r4,r2
 40026a0:	400502c0 	call	400502c <xTaskRemoveFromEventList>
 40026a4:	10000126 	beq	r2,zero,40026ac <prvUnlockQueue+0x4c>
                    {
                        /* The task waiting has a higher priority so record that
                         * a context switch is required. */
                        vTaskMissedYield();
 40026a8:	40056bc0 	call	40056bc <vTaskMissedYield>
                    break;
                }
            }
            #endif /* configUSE_QUEUE_SETS */

            --cTxLock;
 40026ac:	e0bfffc3 	ldbu	r2,-1(fp)
 40026b0:	10bfffc4 	addi	r2,r2,-1
 40026b4:	e0bfffc5 	stb	r2,-1(fp)
        while( cTxLock > queueLOCKED_UNMODIFIED )
 40026b8:	e0bfffc7 	ldb	r2,-1(fp)
 40026bc:	00bff216 	blt	zero,r2,4002688 <prvUnlockQueue+0x28>
 40026c0:	00000106 	br	40026c8 <prvUnlockQueue+0x68>
                    break;
 40026c4:	0001883a 	nop
        }

        pxQueue->cTxLock = queueUNLOCKED;
 40026c8:	e0bffe17 	ldw	r2,-8(fp)
 40026cc:	00ffffc4 	movi	r3,-1
 40026d0:	10c01145 	stb	r3,69(r2)
    }
    taskEXIT_CRITICAL();
 40026d4:	4005fd00 	call	4005fd0 <vTaskExitCritical>

    /* Do the same for the Rx lock. */
    taskENTER_CRITICAL();
 40026d8:	4005f7c0 	call	4005f7c <vTaskEnterCritical>
    {
        int8_t cRxLock = pxQueue->cRxLock;
 40026dc:	e0bffe17 	ldw	r2,-8(fp)
 40026e0:	10801103 	ldbu	r2,68(r2)
 40026e4:	e0bfff85 	stb	r2,-2(fp)

        while( cRxLock > queueLOCKED_UNMODIFIED )
 40026e8:	00000c06 	br	400271c <prvUnlockQueue+0xbc>
        {
            if( listLIST_IS_EMPTY( &( pxQueue->xTasksWaitingToSend ) ) == pdFALSE )
 40026ec:	e0bffe17 	ldw	r2,-8(fp)
 40026f0:	10800417 	ldw	r2,16(r2)
 40026f4:	10000c26 	beq	r2,zero,4002728 <prvUnlockQueue+0xc8>
            {
                if( xTaskRemoveFromEventList( &( pxQueue->xTasksWaitingToSend ) ) != pdFALSE )
 40026f8:	e0bffe17 	ldw	r2,-8(fp)
 40026fc:	10800404 	addi	r2,r2,16
 4002700:	1009883a 	mov	r4,r2
 4002704:	400502c0 	call	400502c <xTaskRemoveFromEventList>
 4002708:	10000126 	beq	r2,zero,4002710 <prvUnlockQueue+0xb0>
                {
                    vTaskMissedYield();
 400270c:	40056bc0 	call	40056bc <vTaskMissedYield>
                else
                {
                    mtCOVERAGE_TEST_MARKER();
                }

                --cRxLock;
 4002710:	e0bfff83 	ldbu	r2,-2(fp)
 4002714:	10bfffc4 	addi	r2,r2,-1
 4002718:	e0bfff85 	stb	r2,-2(fp)
        while( cRxLock > queueLOCKED_UNMODIFIED )
 400271c:	e0bfff87 	ldb	r2,-2(fp)
 4002720:	00bff216 	blt	zero,r2,40026ec <prvUnlockQueue+0x8c>
 4002724:	00000106 	br	400272c <prvUnlockQueue+0xcc>
            }
            else
            {
                break;
 4002728:	0001883a 	nop
            }
        }

        pxQueue->cRxLock = queueUNLOCKED;
 400272c:	e0bffe17 	ldw	r2,-8(fp)
 4002730:	00ffffc4 	movi	r3,-1
 4002734:	10c01105 	stb	r3,68(r2)
    }
    taskEXIT_CRITICAL();
 4002738:	4005fd00 	call	4005fd0 <vTaskExitCritical>
}
 400273c:	0001883a 	nop
 4002740:	e037883a 	mov	sp,fp
 4002744:	dfc00117 	ldw	ra,4(sp)
 4002748:	df000017 	ldw	fp,0(sp)
 400274c:	dec00204 	addi	sp,sp,8
 4002750:	f800283a 	ret

04002754 <prvIsQueueEmpty>:
/*-----------------------------------------------------------*/

static BaseType_t prvIsQueueEmpty( const Queue_t * pxQueue )
{
 4002754:	defffc04 	addi	sp,sp,-16
 4002758:	dfc00315 	stw	ra,12(sp)
 400275c:	df000215 	stw	fp,8(sp)
 4002760:	df000204 	addi	fp,sp,8
 4002764:	e13ffe15 	stw	r4,-8(fp)
    BaseType_t xReturn;

    taskENTER_CRITICAL();
 4002768:	4005f7c0 	call	4005f7c <vTaskEnterCritical>
    {
        if( pxQueue->uxMessagesWaiting == ( UBaseType_t ) 0 )
 400276c:	e0bffe17 	ldw	r2,-8(fp)
 4002770:	10800e17 	ldw	r2,56(r2)
 4002774:	1000031e 	bne	r2,zero,4002784 <prvIsQueueEmpty+0x30>
        {
            xReturn = pdTRUE;
 4002778:	00800044 	movi	r2,1
 400277c:	e0bfff15 	stw	r2,-4(fp)
 4002780:	00000106 	br	4002788 <prvIsQueueEmpty+0x34>
        }
        else
        {
            xReturn = pdFALSE;
 4002784:	e03fff15 	stw	zero,-4(fp)
        }
    }
    taskEXIT_CRITICAL();
 4002788:	4005fd00 	call	4005fd0 <vTaskExitCritical>

    return xReturn;
 400278c:	e0bfff17 	ldw	r2,-4(fp)
}
 4002790:	e037883a 	mov	sp,fp
 4002794:	dfc00117 	ldw	ra,4(sp)
 4002798:	df000017 	ldw	fp,0(sp)
 400279c:	dec00204 	addi	sp,sp,8
 40027a0:	f800283a 	ret

040027a4 <xQueueIsQueueEmptyFromISR>:
/*-----------------------------------------------------------*/

BaseType_t xQueueIsQueueEmptyFromISR( const QueueHandle_t xQueue )
{
 40027a4:	defffc04 	addi	sp,sp,-16
 40027a8:	df000315 	stw	fp,12(sp)
 40027ac:	df000304 	addi	fp,sp,12
 40027b0:	e13ffd15 	stw	r4,-12(fp)
    BaseType_t xReturn;
    Queue_t * const pxQueue = xQueue;
 40027b4:	e0bffd17 	ldw	r2,-12(fp)
 40027b8:	e0bffe15 	stw	r2,-8(fp)

    configASSERT( pxQueue );

    if( pxQueue->uxMessagesWaiting == ( UBaseType_t ) 0 )
 40027bc:	e0bffe17 	ldw	r2,-8(fp)
 40027c0:	10800e17 	ldw	r2,56(r2)
 40027c4:	1000031e 	bne	r2,zero,40027d4 <xQueueIsQueueEmptyFromISR+0x30>
    {
        xReturn = pdTRUE;
 40027c8:	00800044 	movi	r2,1
 40027cc:	e0bfff15 	stw	r2,-4(fp)
 40027d0:	00000106 	br	40027d8 <xQueueIsQueueEmptyFromISR+0x34>
    }
    else
    {
        xReturn = pdFALSE;
 40027d4:	e03fff15 	stw	zero,-4(fp)
    }

    return xReturn;
 40027d8:	e0bfff17 	ldw	r2,-4(fp)
} /*lint !e818 xQueue could not be pointer to const because it is a typedef. */
 40027dc:	e037883a 	mov	sp,fp
 40027e0:	df000017 	ldw	fp,0(sp)
 40027e4:	dec00104 	addi	sp,sp,4
 40027e8:	f800283a 	ret

040027ec <prvIsQueueFull>:
/*-----------------------------------------------------------*/

static BaseType_t prvIsQueueFull( const Queue_t * pxQueue )
{
 40027ec:	defffc04 	addi	sp,sp,-16
 40027f0:	dfc00315 	stw	ra,12(sp)
 40027f4:	df000215 	stw	fp,8(sp)
 40027f8:	df000204 	addi	fp,sp,8
 40027fc:	e13ffe15 	stw	r4,-8(fp)
    BaseType_t xReturn;

    taskENTER_CRITICAL();
 4002800:	4005f7c0 	call	4005f7c <vTaskEnterCritical>
    {
        if( pxQueue->uxMessagesWaiting == pxQueue->uxLength )
 4002804:	e0bffe17 	ldw	r2,-8(fp)
 4002808:	10c00e17 	ldw	r3,56(r2)
 400280c:	e0bffe17 	ldw	r2,-8(fp)
 4002810:	10800f17 	ldw	r2,60(r2)
 4002814:	1880031e 	bne	r3,r2,4002824 <prvIsQueueFull+0x38>
        {
            xReturn = pdTRUE;
 4002818:	00800044 	movi	r2,1
 400281c:	e0bfff15 	stw	r2,-4(fp)
 4002820:	00000106 	br	4002828 <prvIsQueueFull+0x3c>
        }
        else
        {
            xReturn = pdFALSE;
 4002824:	e03fff15 	stw	zero,-4(fp)
        }
    }
    taskEXIT_CRITICAL();
 4002828:	4005fd00 	call	4005fd0 <vTaskExitCritical>

    return xReturn;
 400282c:	e0bfff17 	ldw	r2,-4(fp)
}
 4002830:	e037883a 	mov	sp,fp
 4002834:	dfc00117 	ldw	ra,4(sp)
 4002838:	df000017 	ldw	fp,0(sp)
 400283c:	dec00204 	addi	sp,sp,8
 4002840:	f800283a 	ret

04002844 <xQueueIsQueueFullFromISR>:
/*-----------------------------------------------------------*/

BaseType_t xQueueIsQueueFullFromISR( const QueueHandle_t xQueue )
{
 4002844:	defffc04 	addi	sp,sp,-16
 4002848:	df000315 	stw	fp,12(sp)
 400284c:	df000304 	addi	fp,sp,12
 4002850:	e13ffd15 	stw	r4,-12(fp)
    BaseType_t xReturn;
    Queue_t * const pxQueue = xQueue;
 4002854:	e0bffd17 	ldw	r2,-12(fp)
 4002858:	e0bffe15 	stw	r2,-8(fp)

    configASSERT( pxQueue );

    if( pxQueue->uxMessagesWaiting == pxQueue->uxLength )
 400285c:	e0bffe17 	ldw	r2,-8(fp)
 4002860:	10c00e17 	ldw	r3,56(r2)
 4002864:	e0bffe17 	ldw	r2,-8(fp)
 4002868:	10800f17 	ldw	r2,60(r2)
 400286c:	1880031e 	bne	r3,r2,400287c <xQueueIsQueueFullFromISR+0x38>
    {
        xReturn = pdTRUE;
 4002870:	00800044 	movi	r2,1
 4002874:	e0bfff15 	stw	r2,-4(fp)
 4002878:	00000106 	br	4002880 <xQueueIsQueueFullFromISR+0x3c>
    }
    else
    {
        xReturn = pdFALSE;
 400287c:	e03fff15 	stw	zero,-4(fp)
    }

    return xReturn;
 4002880:	e0bfff17 	ldw	r2,-4(fp)
} /*lint !e818 xQueue could not be pointer to const because it is a typedef. */
 4002884:	e037883a 	mov	sp,fp
 4002888:	df000017 	ldw	fp,0(sp)
 400288c:	dec00104 	addi	sp,sp,4
 4002890:	f800283a 	ret

04002894 <xStreamBufferGenericCreate>:
    StreamBufferHandle_t xStreamBufferGenericCreate( size_t xBufferSizeBytes,
                                                     size_t xTriggerLevelBytes,
                                                     BaseType_t xIsMessageBuffer,
                                                     StreamBufferCallbackFunction_t pxSendCompletedCallback,
                                                     StreamBufferCallbackFunction_t pxReceiveCompletedCallback )
    {
 4002894:	defff504 	addi	sp,sp,-44
 4002898:	dfc00a15 	stw	ra,40(sp)
 400289c:	df000915 	stw	fp,36(sp)
 40028a0:	df000904 	addi	fp,sp,36
 40028a4:	e13ffd15 	stw	r4,-12(fp)
 40028a8:	e17ffc15 	stw	r5,-16(fp)
 40028ac:	e1bffb15 	stw	r6,-20(fp)
 40028b0:	e1fffa15 	stw	r7,-24(fp)

        /* In case the stream buffer is going to be used as a message buffer
         * (that is, it will hold discrete messages with a little meta data that
         * says how big the next message is) check the buffer will be large enough
         * to hold at least one message. */
        if( xIsMessageBuffer == pdTRUE )
 40028b4:	e0bffb17 	ldw	r2,-20(fp)
 40028b8:	10800058 	cmpnei	r2,r2,1
 40028bc:	1000031e 	bne	r2,zero,40028cc <xStreamBufferGenericCreate+0x38>
        {
            /* Is a message buffer but not statically allocated. */
            ucFlags = sbFLAGS_IS_MESSAGE_BUFFER;
 40028c0:	00800044 	movi	r2,1
 40028c4:	e0bffec5 	stb	r2,-5(fp)
 40028c8:	00000106 	br	40028d0 <xStreamBufferGenericCreate+0x3c>
            configASSERT( xBufferSizeBytes > sbBYTES_TO_STORE_MESSAGE_LENGTH );
        }
        else
        {
            /* Not a message buffer and not statically allocated. */
            ucFlags = 0;
 40028cc:	e03ffec5 	stb	zero,-5(fp)

        configASSERT( xTriggerLevelBytes <= xBufferSizeBytes );

        /* A trigger level of 0 would cause a waiting task to unblock even when
         * the buffer was empty. */
        if( xTriggerLevelBytes == ( size_t ) 0 )
 40028d0:	e0bffc17 	ldw	r2,-16(fp)
 40028d4:	1000021e 	bne	r2,zero,40028e0 <xStreamBufferGenericCreate+0x4c>
        {
            xTriggerLevelBytes = ( size_t ) 1;
 40028d8:	00800044 	movi	r2,1
 40028dc:	e0bffc15 	stw	r2,-16(fp)
         * and the buffer follows immediately after.  The requested size is
         * incremented so the free space is returned as the user would expect -
         * this is a quirk of the implementation that means otherwise the free
         * space would be reported as one byte smaller than would be logically
         * expected. */
        if( xBufferSizeBytes < ( xBufferSizeBytes + 1 + sizeof( StreamBuffer_t ) ) )
 40028e0:	e0bffd17 	ldw	r2,-12(fp)
 40028e4:	00fff784 	movi	r3,-34
 40028e8:	18800936 	bltu	r3,r2,4002910 <xStreamBufferGenericCreate+0x7c>
        {
            xBufferSizeBytes++;
 40028ec:	e0bffd17 	ldw	r2,-12(fp)
 40028f0:	10800044 	addi	r2,r2,1
 40028f4:	e0bffd15 	stw	r2,-12(fp)
            pucAllocatedMemory = ( uint8_t * ) pvPortMalloc( xBufferSizeBytes + sizeof( StreamBuffer_t ) ); /*lint !e9079 malloc() only returns void*. */
 40028f8:	e0bffd17 	ldw	r2,-12(fp)
 40028fc:	10800804 	addi	r2,r2,32
 4002900:	1009883a 	mov	r4,r2
 4002904:	400103c0 	call	400103c <pvPortMalloc>
 4002908:	e0bfff15 	stw	r2,-4(fp)
 400290c:	00000106 	br	4002914 <xStreamBufferGenericCreate+0x80>
        }
        else
        {
            pucAllocatedMemory = NULL;
 4002910:	e03fff15 	stw	zero,-4(fp)
        }

        if( pucAllocatedMemory != NULL )
 4002914:	e0bfff17 	ldw	r2,-4(fp)
 4002918:	10000d26 	beq	r2,zero,4002950 <xStreamBufferGenericCreate+0xbc>
        {
            prvInitialiseNewStreamBuffer( ( StreamBuffer_t * ) pucAllocatedMemory,       /* Structure at the start of the allocated memory. */ /*lint !e9087 Safe cast as allocated memory is aligned. */ /*lint !e826 Area is not too small and alignment is guaranteed provided malloc() behaves as expected and returns aligned buffer. */
 400291c:	e0bfff17 	ldw	r2,-4(fp)
 4002920:	11000804 	addi	r4,r2,32
 4002924:	e0bffec3 	ldbu	r2,-5(fp)
 4002928:	e0c00217 	ldw	r3,8(fp)
 400292c:	d8c00215 	stw	r3,8(sp)
 4002930:	e0fffa17 	ldw	r3,-24(fp)
 4002934:	d8c00115 	stw	r3,4(sp)
 4002938:	d8800015 	stw	r2,0(sp)
 400293c:	e1fffc17 	ldw	r7,-16(fp)
 4002940:	e1bffd17 	ldw	r6,-12(fp)
 4002944:	200b883a 	mov	r5,r4
 4002948:	e13fff17 	ldw	r4,-4(fp)
 400294c:	40037340 	call	4003734 <prvInitialiseNewStreamBuffer>
        else
        {
            traceSTREAM_BUFFER_CREATE_FAILED( xIsMessageBuffer );
        }

        return ( StreamBufferHandle_t ) pucAllocatedMemory; /*lint !e9087 !e826 Safe cast as allocated memory is aligned. */
 4002950:	e0bfff17 	ldw	r2,-4(fp)
    }
 4002954:	e037883a 	mov	sp,fp
 4002958:	dfc00117 	ldw	ra,4(sp)
 400295c:	df000017 	ldw	fp,0(sp)
 4002960:	dec00204 	addi	sp,sp,8
 4002964:	f800283a 	ret

04002968 <vStreamBufferDelete>:
    }
#endif /* ( configSUPPORT_STATIC_ALLOCATION == 1 ) */
/*-----------------------------------------------------------*/

void vStreamBufferDelete( StreamBufferHandle_t xStreamBuffer )
{
 4002968:	defffc04 	addi	sp,sp,-16
 400296c:	dfc00315 	stw	ra,12(sp)
 4002970:	df000215 	stw	fp,8(sp)
 4002974:	df000204 	addi	fp,sp,8
 4002978:	e13ffe15 	stw	r4,-8(fp)
    StreamBuffer_t * pxStreamBuffer = xStreamBuffer;
 400297c:	e0bffe17 	ldw	r2,-8(fp)
 4002980:	e0bfff15 	stw	r2,-4(fp)

    configASSERT( pxStreamBuffer );

    traceSTREAM_BUFFER_DELETE( xStreamBuffer );

    if( ( pxStreamBuffer->ucFlags & sbFLAGS_IS_STATICALLY_ALLOCATED ) == ( uint8_t ) pdFALSE )
 4002984:	e0bfff17 	ldw	r2,-4(fp)
 4002988:	10800703 	ldbu	r2,28(r2)
 400298c:	10803fcc 	andi	r2,r2,255
 4002990:	1080008c 	andi	r2,r2,2
 4002994:	1000031e 	bne	r2,zero,40029a4 <vStreamBufferDelete+0x3c>
    {
        #if ( configSUPPORT_DYNAMIC_ALLOCATION == 1 )
        {
            /* Both the structure and the buffer were allocated using a single call
            * to pvPortMalloc(), hence only one call to vPortFree() is required. */
            vPortFree( ( void * ) pxStreamBuffer ); /*lint !e9087 Standard free() semantics require void *, plus pxStreamBuffer was allocated by pvPortMalloc(). */
 4002998:	e13fff17 	ldw	r4,-4(fp)
 400299c:	40011240 	call	4001124 <vPortFree>
    {
        /* The structure and buffer were not allocated dynamically and cannot be
         * freed - just scrub the structure so future use will assert. */
        ( void ) memset( pxStreamBuffer, 0x00, sizeof( StreamBuffer_t ) );
    }
}
 40029a0:	00000406 	br	40029b4 <vStreamBufferDelete+0x4c>
        ( void ) memset( pxStreamBuffer, 0x00, sizeof( StreamBuffer_t ) );
 40029a4:	01800804 	movi	r6,32
 40029a8:	000b883a 	mov	r5,zero
 40029ac:	e13fff17 	ldw	r4,-4(fp)
 40029b0:	40079800 	call	4007980 <memset>
}
 40029b4:	0001883a 	nop
 40029b8:	e037883a 	mov	sp,fp
 40029bc:	dfc00117 	ldw	ra,4(sp)
 40029c0:	df000017 	ldw	fp,0(sp)
 40029c4:	dec00204 	addi	sp,sp,8
 40029c8:	f800283a 	ret

040029cc <xStreamBufferReset>:
/*-----------------------------------------------------------*/

BaseType_t xStreamBufferReset( StreamBufferHandle_t xStreamBuffer )
{
 40029cc:	defff604 	addi	sp,sp,-40
 40029d0:	dfc00915 	stw	ra,36(sp)
 40029d4:	df000815 	stw	fp,32(sp)
 40029d8:	df000804 	addi	fp,sp,32
 40029dc:	e13ffb15 	stw	r4,-20(fp)
    StreamBuffer_t * const pxStreamBuffer = xStreamBuffer;
 40029e0:	e0bffb17 	ldw	r2,-20(fp)
 40029e4:	e0bffe15 	stw	r2,-8(fp)
    BaseType_t xReturn = pdFAIL;
 40029e8:	e03fff15 	stw	zero,-4(fp)
    StreamBufferCallbackFunction_t pxSendCallback = NULL, pxReceiveCallback = NULL;
 40029ec:	e03ffd15 	stw	zero,-12(fp)
 40029f0:	e03ffc15 	stw	zero,-16(fp)
        uxStreamBufferNumber = pxStreamBuffer->uxStreamBufferNumber;
    }
    #endif

    /* Can only reset a message buffer if there are no tasks blocked on it. */
    taskENTER_CRITICAL();
 40029f4:	4005f7c0 	call	4005f7c <vTaskEnterCritical>
    {
        if( ( pxStreamBuffer->xTaskWaitingToReceive == NULL ) && ( pxStreamBuffer->xTaskWaitingToSend == NULL ) )
 40029f8:	e0bffe17 	ldw	r2,-8(fp)
 40029fc:	10800417 	ldw	r2,16(r2)
 4002a00:	1000181e 	bne	r2,zero,4002a64 <xStreamBufferReset+0x98>
 4002a04:	e0bffe17 	ldw	r2,-8(fp)
 4002a08:	10800517 	ldw	r2,20(r2)
 4002a0c:	1000151e 	bne	r2,zero,4002a64 <xStreamBufferReset+0x98>
                pxSendCallback = pxStreamBuffer->pxSendCompletedCallback;
                pxReceiveCallback = pxStreamBuffer->pxReceiveCompletedCallback;
            }
            #endif

            prvInitialiseNewStreamBuffer( pxStreamBuffer,
 4002a10:	e0bffe17 	ldw	r2,-8(fp)
 4002a14:	11000617 	ldw	r4,24(r2)
 4002a18:	e0bffe17 	ldw	r2,-8(fp)
 4002a1c:	11400217 	ldw	r5,8(r2)
 4002a20:	e0bffe17 	ldw	r2,-8(fp)
 4002a24:	11800317 	ldw	r6,12(r2)
                                          pxStreamBuffer->pucBuffer,
                                          pxStreamBuffer->xLength,
                                          pxStreamBuffer->xTriggerLevelBytes,
                                          pxStreamBuffer->ucFlags,
 4002a28:	e0bffe17 	ldw	r2,-8(fp)
 4002a2c:	10800703 	ldbu	r2,28(r2)
            prvInitialiseNewStreamBuffer( pxStreamBuffer,
 4002a30:	10803fcc 	andi	r2,r2,255
 4002a34:	e0fffc17 	ldw	r3,-16(fp)
 4002a38:	d8c00215 	stw	r3,8(sp)
 4002a3c:	e0fffd17 	ldw	r3,-12(fp)
 4002a40:	d8c00115 	stw	r3,4(sp)
 4002a44:	d8800015 	stw	r2,0(sp)
 4002a48:	300f883a 	mov	r7,r6
 4002a4c:	280d883a 	mov	r6,r5
 4002a50:	200b883a 	mov	r5,r4
 4002a54:	e13ffe17 	ldw	r4,-8(fp)
 4002a58:	40037340 	call	4003734 <prvInitialiseNewStreamBuffer>
            }
            #endif

            traceSTREAM_BUFFER_RESET( xStreamBuffer );

            xReturn = pdPASS;
 4002a5c:	00800044 	movi	r2,1
 4002a60:	e0bfff15 	stw	r2,-4(fp)
        }
    }
    taskEXIT_CRITICAL();
 4002a64:	4005fd00 	call	4005fd0 <vTaskExitCritical>

    return xReturn;
 4002a68:	e0bfff17 	ldw	r2,-4(fp)
}
 4002a6c:	e037883a 	mov	sp,fp
 4002a70:	dfc00117 	ldw	ra,4(sp)
 4002a74:	df000017 	ldw	fp,0(sp)
 4002a78:	dec00204 	addi	sp,sp,8
 4002a7c:	f800283a 	ret

04002a80 <xStreamBufferSetTriggerLevel>:
/*-----------------------------------------------------------*/

BaseType_t xStreamBufferSetTriggerLevel( StreamBufferHandle_t xStreamBuffer,
                                         size_t xTriggerLevel )
{
 4002a80:	defffb04 	addi	sp,sp,-20
 4002a84:	df000415 	stw	fp,16(sp)
 4002a88:	df000404 	addi	fp,sp,16
 4002a8c:	e13ffd15 	stw	r4,-12(fp)
 4002a90:	e17ffc15 	stw	r5,-16(fp)
    StreamBuffer_t * const pxStreamBuffer = xStreamBuffer;
 4002a94:	e0bffd17 	ldw	r2,-12(fp)
 4002a98:	e0bffe15 	stw	r2,-8(fp)
    BaseType_t xReturn;

    configASSERT( pxStreamBuffer );

    /* It is not valid for the trigger level to be 0. */
    if( xTriggerLevel == ( size_t ) 0 )
 4002a9c:	e0bffc17 	ldw	r2,-16(fp)
 4002aa0:	1000021e 	bne	r2,zero,4002aac <xStreamBufferSetTriggerLevel+0x2c>
    {
        xTriggerLevel = ( size_t ) 1;
 4002aa4:	00800044 	movi	r2,1
 4002aa8:	e0bffc15 	stw	r2,-16(fp)
    }

    /* The trigger level is the number of bytes that must be in the stream
     * buffer before a task that is waiting for data is unblocked. */
    if( xTriggerLevel < pxStreamBuffer->xLength )
 4002aac:	e0bffe17 	ldw	r2,-8(fp)
 4002ab0:	10800217 	ldw	r2,8(r2)
 4002ab4:	e0fffc17 	ldw	r3,-16(fp)
 4002ab8:	1880062e 	bgeu	r3,r2,4002ad4 <xStreamBufferSetTriggerLevel+0x54>
    {
        pxStreamBuffer->xTriggerLevelBytes = xTriggerLevel;
 4002abc:	e0bffe17 	ldw	r2,-8(fp)
 4002ac0:	e0fffc17 	ldw	r3,-16(fp)
 4002ac4:	10c00315 	stw	r3,12(r2)
        xReturn = pdPASS;
 4002ac8:	00800044 	movi	r2,1
 4002acc:	e0bfff15 	stw	r2,-4(fp)
 4002ad0:	00000106 	br	4002ad8 <xStreamBufferSetTriggerLevel+0x58>
    }
    else
    {
        xReturn = pdFALSE;
 4002ad4:	e03fff15 	stw	zero,-4(fp)
    }

    return xReturn;
 4002ad8:	e0bfff17 	ldw	r2,-4(fp)
}
 4002adc:	e037883a 	mov	sp,fp
 4002ae0:	df000017 	ldw	fp,0(sp)
 4002ae4:	dec00104 	addi	sp,sp,4
 4002ae8:	f800283a 	ret

04002aec <xStreamBufferSpacesAvailable>:
/*-----------------------------------------------------------*/

size_t xStreamBufferSpacesAvailable( StreamBufferHandle_t xStreamBuffer )
{
 4002aec:	defffb04 	addi	sp,sp,-20
 4002af0:	df000415 	stw	fp,16(sp)
 4002af4:	df000404 	addi	fp,sp,16
 4002af8:	e13ffc15 	stw	r4,-16(fp)
    const StreamBuffer_t * const pxStreamBuffer = xStreamBuffer;
 4002afc:	e0bffc17 	ldw	r2,-16(fp)
 4002b00:	e0bffe15 	stw	r2,-8(fp)
    /* The code below reads xTail and then xHead.  This is safe if the stream
     * buffer is updated once between the two reads - but not if the stream buffer
     * is updated more than once between the two reads - hence the loop. */
    do
    {
        xOriginalTail = pxStreamBuffer->xTail;
 4002b04:	e0bffe17 	ldw	r2,-8(fp)
 4002b08:	10800017 	ldw	r2,0(r2)
 4002b0c:	e0bffd15 	stw	r2,-12(fp)
        xSpace = pxStreamBuffer->xLength + pxStreamBuffer->xTail;
 4002b10:	e0bffe17 	ldw	r2,-8(fp)
 4002b14:	10c00217 	ldw	r3,8(r2)
 4002b18:	e0bffe17 	ldw	r2,-8(fp)
 4002b1c:	10800017 	ldw	r2,0(r2)
 4002b20:	1885883a 	add	r2,r3,r2
 4002b24:	e0bfff15 	stw	r2,-4(fp)
        xSpace -= pxStreamBuffer->xHead;
 4002b28:	e0bffe17 	ldw	r2,-8(fp)
 4002b2c:	10800117 	ldw	r2,4(r2)
 4002b30:	e0ffff17 	ldw	r3,-4(fp)
 4002b34:	1885c83a 	sub	r2,r3,r2
 4002b38:	e0bfff15 	stw	r2,-4(fp)
    } while( xOriginalTail != pxStreamBuffer->xTail );
 4002b3c:	e0bffe17 	ldw	r2,-8(fp)
 4002b40:	10800017 	ldw	r2,0(r2)
 4002b44:	e0fffd17 	ldw	r3,-12(fp)
 4002b48:	18bfee1e 	bne	r3,r2,4002b04 <xStreamBufferSpacesAvailable+0x18>

    xSpace -= ( size_t ) 1;
 4002b4c:	e0bfff17 	ldw	r2,-4(fp)
 4002b50:	10bfffc4 	addi	r2,r2,-1
 4002b54:	e0bfff15 	stw	r2,-4(fp)

    if( xSpace >= pxStreamBuffer->xLength )
 4002b58:	e0bffe17 	ldw	r2,-8(fp)
 4002b5c:	10800217 	ldw	r2,8(r2)
 4002b60:	e0ffff17 	ldw	r3,-4(fp)
 4002b64:	18800536 	bltu	r3,r2,4002b7c <xStreamBufferSpacesAvailable+0x90>
    {
        xSpace -= pxStreamBuffer->xLength;
 4002b68:	e0bffe17 	ldw	r2,-8(fp)
 4002b6c:	10800217 	ldw	r2,8(r2)
 4002b70:	e0ffff17 	ldw	r3,-4(fp)
 4002b74:	1885c83a 	sub	r2,r3,r2
 4002b78:	e0bfff15 	stw	r2,-4(fp)
    else
    {
        mtCOVERAGE_TEST_MARKER();
    }

    return xSpace;
 4002b7c:	e0bfff17 	ldw	r2,-4(fp)
}
 4002b80:	e037883a 	mov	sp,fp
 4002b84:	df000017 	ldw	fp,0(sp)
 4002b88:	dec00104 	addi	sp,sp,4
 4002b8c:	f800283a 	ret

04002b90 <xStreamBufferBytesAvailable>:
/*-----------------------------------------------------------*/

size_t xStreamBufferBytesAvailable( StreamBufferHandle_t xStreamBuffer )
{
 4002b90:	defffb04 	addi	sp,sp,-20
 4002b94:	dfc00415 	stw	ra,16(sp)
 4002b98:	df000315 	stw	fp,12(sp)
 4002b9c:	df000304 	addi	fp,sp,12
 4002ba0:	e13ffd15 	stw	r4,-12(fp)
    const StreamBuffer_t * const pxStreamBuffer = xStreamBuffer;
 4002ba4:	e0bffd17 	ldw	r2,-12(fp)
 4002ba8:	e0bfff15 	stw	r2,-4(fp)
    size_t xReturn;

    configASSERT( pxStreamBuffer );

    xReturn = prvBytesInBuffer( pxStreamBuffer );
 4002bac:	e13fff17 	ldw	r4,-4(fp)
 4002bb0:	40036c00 	call	40036c0 <prvBytesInBuffer>
 4002bb4:	e0bffe15 	stw	r2,-8(fp)
    return xReturn;
 4002bb8:	e0bffe17 	ldw	r2,-8(fp)
}
 4002bbc:	e037883a 	mov	sp,fp
 4002bc0:	dfc00117 	ldw	ra,4(sp)
 4002bc4:	df000017 	ldw	fp,0(sp)
 4002bc8:	dec00204 	addi	sp,sp,8
 4002bcc:	f800283a 	ret

04002bd0 <xStreamBufferSend>:

size_t xStreamBufferSend( StreamBufferHandle_t xStreamBuffer,
                          const void * pvTxData,
                          size_t xDataLengthBytes,
                          TickType_t xTicksToWait )
{
 4002bd0:	defff204 	addi	sp,sp,-56
 4002bd4:	dfc00d15 	stw	ra,52(sp)
 4002bd8:	df000c15 	stw	fp,48(sp)
 4002bdc:	df000c04 	addi	fp,sp,48
 4002be0:	e13ff815 	stw	r4,-32(fp)
 4002be4:	e17ff715 	stw	r5,-36(fp)
 4002be8:	e1bff615 	stw	r6,-40(fp)
 4002bec:	e1fff515 	stw	r7,-44(fp)
    StreamBuffer_t * const pxStreamBuffer = xStreamBuffer;
 4002bf0:	e0bff817 	ldw	r2,-32(fp)
 4002bf4:	e0bffd15 	stw	r2,-12(fp)
    size_t xReturn, xSpace = 0;
 4002bf8:	e03fff15 	stw	zero,-4(fp)
    size_t xRequiredSpace = xDataLengthBytes;
 4002bfc:	e0bff617 	ldw	r2,-40(fp)
 4002c00:	e0bffe15 	stw	r2,-8(fp)
    TimeOut_t xTimeOut;
    size_t xMaxReportedSpace = 0;
 4002c04:	e03ffc15 	stw	zero,-16(fp)
    configASSERT( pvTxData );
    configASSERT( pxStreamBuffer );

    /* The maximum amount of space a stream buffer will ever report is its length
     * minus 1. */
    xMaxReportedSpace = pxStreamBuffer->xLength - ( size_t ) 1;
 4002c08:	e0bffd17 	ldw	r2,-12(fp)
 4002c0c:	10800217 	ldw	r2,8(r2)
 4002c10:	10bfffc4 	addi	r2,r2,-1
 4002c14:	e0bffc15 	stw	r2,-16(fp)

    /* This send function is used to write to both message buffers and stream
     * buffers.  If this is a message buffer then the space needed must be
     * increased by the amount of bytes needed to store the length of the
     * message. */
    if( ( pxStreamBuffer->ucFlags & sbFLAGS_IS_MESSAGE_BUFFER ) != ( uint8_t ) 0 )
 4002c18:	e0bffd17 	ldw	r2,-12(fp)
 4002c1c:	10800703 	ldbu	r2,28(r2)
 4002c20:	10803fcc 	andi	r2,r2,255
 4002c24:	1080004c 	andi	r2,r2,1
 4002c28:	10000826 	beq	r2,zero,4002c4c <xStreamBufferSend+0x7c>
    {
        xRequiredSpace += sbBYTES_TO_STORE_MESSAGE_LENGTH;
 4002c2c:	e0bffe17 	ldw	r2,-8(fp)
 4002c30:	10800104 	addi	r2,r2,4
 4002c34:	e0bffe15 	stw	r2,-8(fp)
        /* Overflow? */
        configASSERT( xRequiredSpace > xDataLengthBytes );

        /* If this is a message buffer then it must be possible to write the
         * whole message. */
        if( xRequiredSpace > xMaxReportedSpace )
 4002c38:	e0bffe17 	ldw	r2,-8(fp)
 4002c3c:	e0fffc17 	ldw	r3,-16(fp)
 4002c40:	1880072e 	bgeu	r3,r2,4002c60 <xStreamBufferSend+0x90>
        {
            /* The message would not fit even if the entire buffer was empty,
             * so don't wait for space. */
            xTicksToWait = ( TickType_t ) 0;
 4002c44:	e03ff515 	stw	zero,-44(fp)
 4002c48:	00000506 	br	4002c60 <xStreamBufferSend+0x90>
    else
    {
        /* If this is a stream buffer then it is acceptable to write only part
         * of the message to the buffer.  Cap the length to the total length of
         * the buffer. */
        if( xRequiredSpace > xMaxReportedSpace )
 4002c4c:	e0bffe17 	ldw	r2,-8(fp)
 4002c50:	e0fffc17 	ldw	r3,-16(fp)
 4002c54:	1880022e 	bgeu	r3,r2,4002c60 <xStreamBufferSend+0x90>
        {
            xRequiredSpace = xMaxReportedSpace;
 4002c58:	e0bffc17 	ldw	r2,-16(fp)
 4002c5c:	e0bffe15 	stw	r2,-8(fp)
        {
            mtCOVERAGE_TEST_MARKER();
        }
    }

    if( xTicksToWait != ( TickType_t ) 0 )
 4002c60:	e0bff517 	ldw	r2,-44(fp)
 4002c64:	10002426 	beq	r2,zero,4002cf8 <xStreamBufferSend+0x128>
    {
        vTaskSetTimeOutState( &xTimeOut );
 4002c68:	e0bff904 	addi	r2,fp,-28
 4002c6c:	1009883a 	mov	r4,r2
 4002c70:	400554c0 	call	400554c <vTaskSetTimeOutState>

        do
        {
            /* Wait until the required number of bytes are free in the message
             * buffer. */
            taskENTER_CRITICAL();
 4002c74:	4005f7c0 	call	4005f7c <vTaskEnterCritical>
            {
                xSpace = xStreamBufferSpacesAvailable( pxStreamBuffer );
 4002c78:	e13ffd17 	ldw	r4,-12(fp)
 4002c7c:	4002aec0 	call	4002aec <xStreamBufferSpacesAvailable>
 4002c80:	e0bfff15 	stw	r2,-4(fp)

                if( xSpace < xRequiredSpace )
 4002c84:	e0ffff17 	ldw	r3,-4(fp)
 4002c88:	e0bffe17 	ldw	r2,-8(fp)
 4002c8c:	1880082e 	bgeu	r3,r2,4002cb0 <xStreamBufferSend+0xe0>
                {
                    /* Clear notification state as going to wait for space. */
                    ( void ) xTaskNotifyStateClear( NULL );
 4002c90:	000b883a 	mov	r5,zero
 4002c94:	0009883a 	mov	r4,zero
 4002c98:	4006d040 	call	4006d04 <xTaskGenericNotifyStateClear>

                    /* Should only be one writer. */
                    configASSERT( pxStreamBuffer->xTaskWaitingToSend == NULL );
                    pxStreamBuffer->xTaskWaitingToSend = xTaskGetCurrentTaskHandle();
 4002c9c:	40059900 	call	4005990 <xTaskGetCurrentTaskHandle>
 4002ca0:	1007883a 	mov	r3,r2
 4002ca4:	e0bffd17 	ldw	r2,-12(fp)
 4002ca8:	10c00515 	stw	r3,20(r2)
 4002cac:	00000206 	br	4002cb8 <xStreamBufferSend+0xe8>
                }
                else
                {
                    taskEXIT_CRITICAL();
 4002cb0:	4005fd00 	call	4005fd0 <vTaskExitCritical>
                    break;
 4002cb4:	00001006 	br	4002cf8 <xStreamBufferSend+0x128>
                }
            }
            taskEXIT_CRITICAL();
 4002cb8:	4005fd00 	call	4005fd0 <vTaskExitCritical>

            traceBLOCKING_ON_STREAM_BUFFER_SEND( xStreamBuffer );
            ( void ) xTaskNotifyWait( ( uint32_t ) 0, ( uint32_t ) 0, NULL, xTicksToWait );
 4002cbc:	e0bff517 	ldw	r2,-44(fp)
 4002cc0:	d8800015 	stw	r2,0(sp)
 4002cc4:	000f883a 	mov	r7,zero
 4002cc8:	000d883a 	mov	r6,zero
 4002ccc:	000b883a 	mov	r5,zero
 4002cd0:	0009883a 	mov	r4,zero
 4002cd4:	40061b40 	call	40061b4 <xTaskGenericNotifyWait>
            pxStreamBuffer->xTaskWaitingToSend = NULL;
 4002cd8:	e0bffd17 	ldw	r2,-12(fp)
 4002cdc:	10000515 	stw	zero,20(r2)
        } while( xTaskCheckForTimeOut( &xTimeOut, &xTicksToWait ) == pdFALSE );
 4002ce0:	e0fff504 	addi	r3,fp,-44
 4002ce4:	e0bff904 	addi	r2,fp,-28
 4002ce8:	180b883a 	mov	r5,r3
 4002cec:	1009883a 	mov	r4,r2
 4002cf0:	40055d40 	call	40055d4 <xTaskCheckForTimeOut>
 4002cf4:	103fdf26 	beq	r2,zero,4002c74 <xStreamBufferSend+0xa4>
    else
    {
        mtCOVERAGE_TEST_MARKER();
    }

    if( xSpace == ( size_t ) 0 )
 4002cf8:	e0bfff17 	ldw	r2,-4(fp)
 4002cfc:	1000031e 	bne	r2,zero,4002d0c <xStreamBufferSend+0x13c>
    {
        xSpace = xStreamBufferSpacesAvailable( pxStreamBuffer );
 4002d00:	e13ffd17 	ldw	r4,-12(fp)
 4002d04:	4002aec0 	call	4002aec <xStreamBufferSpacesAvailable>
 4002d08:	e0bfff15 	stw	r2,-4(fp)
    else
    {
        mtCOVERAGE_TEST_MARKER();
    }

    xReturn = prvWriteMessageToBuffer( pxStreamBuffer, pvTxData, xDataLengthBytes, xSpace, xRequiredSpace );
 4002d0c:	e0bffe17 	ldw	r2,-8(fp)
 4002d10:	d8800015 	stw	r2,0(sp)
 4002d14:	e1ffff17 	ldw	r7,-4(fp)
 4002d18:	e1bff617 	ldw	r6,-40(fp)
 4002d1c:	e17ff717 	ldw	r5,-36(fp)
 4002d20:	e13ffd17 	ldw	r4,-12(fp)
 4002d24:	4002e940 	call	4002e94 <prvWriteMessageToBuffer>
 4002d28:	e0bffb15 	stw	r2,-20(fp)

    if( xReturn > ( size_t ) 0 )
 4002d2c:	e0bffb17 	ldw	r2,-20(fp)
 4002d30:	10001526 	beq	r2,zero,4002d88 <xStreamBufferSend+0x1b8>
    {
        traceSTREAM_BUFFER_SEND( xStreamBuffer, xReturn );

        /* Was a task waiting for the data? */
        if( prvBytesInBuffer( pxStreamBuffer ) >= pxStreamBuffer->xTriggerLevelBytes )
 4002d34:	e13ffd17 	ldw	r4,-12(fp)
 4002d38:	40036c00 	call	40036c0 <prvBytesInBuffer>
 4002d3c:	1007883a 	mov	r3,r2
 4002d40:	e0bffd17 	ldw	r2,-12(fp)
 4002d44:	10800317 	ldw	r2,12(r2)
 4002d48:	18800f36 	bltu	r3,r2,4002d88 <xStreamBufferSend+0x1b8>
        {
            prvSEND_COMPLETED( pxStreamBuffer );
 4002d4c:	40046f00 	call	40046f0 <vTaskSuspendAll>
 4002d50:	e0bffd17 	ldw	r2,-12(fp)
 4002d54:	10800417 	ldw	r2,16(r2)
 4002d58:	10000a26 	beq	r2,zero,4002d84 <xStreamBufferSend+0x1b4>
 4002d5c:	e0bffd17 	ldw	r2,-12(fp)
 4002d60:	10800417 	ldw	r2,16(r2)
 4002d64:	d8000015 	stw	zero,0(sp)
 4002d68:	000f883a 	mov	r7,zero
 4002d6c:	000d883a 	mov	r6,zero
 4002d70:	000b883a 	mov	r5,zero
 4002d74:	1009883a 	mov	r4,r2
 4002d78:	40063180 	call	4006318 <xTaskGenericNotify>
 4002d7c:	e0bffd17 	ldw	r2,-12(fp)
 4002d80:	10000415 	stw	zero,16(r2)
 4002d84:	400471c0 	call	400471c <xTaskResumeAll>
    {
        mtCOVERAGE_TEST_MARKER();
        traceSTREAM_BUFFER_SEND_FAILED( xStreamBuffer );
    }

    return xReturn;
 4002d88:	e0bffb17 	ldw	r2,-20(fp)
}
 4002d8c:	e037883a 	mov	sp,fp
 4002d90:	dfc00117 	ldw	ra,4(sp)
 4002d94:	df000017 	ldw	fp,0(sp)
 4002d98:	dec00204 	addi	sp,sp,8
 4002d9c:	f800283a 	ret

04002da0 <xStreamBufferSendFromISR>:

size_t xStreamBufferSendFromISR( StreamBufferHandle_t xStreamBuffer,
                                 const void * pvTxData,
                                 size_t xDataLengthBytes,
                                 BaseType_t * const pxHigherPriorityTaskWoken )
{
 4002da0:	defff304 	addi	sp,sp,-52
 4002da4:	dfc00c15 	stw	ra,48(sp)
 4002da8:	df000b15 	stw	fp,44(sp)
 4002dac:	df000b04 	addi	fp,sp,44
 4002db0:	e13ffa15 	stw	r4,-24(fp)
 4002db4:	e17ff915 	stw	r5,-28(fp)
 4002db8:	e1bff815 	stw	r6,-32(fp)
 4002dbc:	e1fff715 	stw	r7,-36(fp)
    StreamBuffer_t * const pxStreamBuffer = xStreamBuffer;
 4002dc0:	e0bffa17 	ldw	r2,-24(fp)
 4002dc4:	e0bffe15 	stw	r2,-8(fp)
    size_t xReturn, xSpace;
    size_t xRequiredSpace = xDataLengthBytes;
 4002dc8:	e0bff817 	ldw	r2,-32(fp)
 4002dcc:	e0bfff15 	stw	r2,-4(fp)

    /* This send function is used to write to both message buffers and stream
     * buffers.  If this is a message buffer then the space needed must be
     * increased by the amount of bytes needed to store the length of the
     * message. */
    if( ( pxStreamBuffer->ucFlags & sbFLAGS_IS_MESSAGE_BUFFER ) != ( uint8_t ) 0 )
 4002dd0:	e0bffe17 	ldw	r2,-8(fp)
 4002dd4:	10800703 	ldbu	r2,28(r2)
 4002dd8:	10803fcc 	andi	r2,r2,255
 4002ddc:	1080004c 	andi	r2,r2,1
 4002de0:	10000326 	beq	r2,zero,4002df0 <xStreamBufferSendFromISR+0x50>
    {
        xRequiredSpace += sbBYTES_TO_STORE_MESSAGE_LENGTH;
 4002de4:	e0bfff17 	ldw	r2,-4(fp)
 4002de8:	10800104 	addi	r2,r2,4
 4002dec:	e0bfff15 	stw	r2,-4(fp)
    else
    {
        mtCOVERAGE_TEST_MARKER();
    }

    xSpace = xStreamBufferSpacesAvailable( pxStreamBuffer );
 4002df0:	e13ffe17 	ldw	r4,-8(fp)
 4002df4:	4002aec0 	call	4002aec <xStreamBufferSpacesAvailable>
 4002df8:	e0bffd15 	stw	r2,-12(fp)
    xReturn = prvWriteMessageToBuffer( pxStreamBuffer, pvTxData, xDataLengthBytes, xSpace, xRequiredSpace );
 4002dfc:	e0bfff17 	ldw	r2,-4(fp)
 4002e00:	d8800015 	stw	r2,0(sp)
 4002e04:	e1fffd17 	ldw	r7,-12(fp)
 4002e08:	e1bff817 	ldw	r6,-32(fp)
 4002e0c:	e17ff917 	ldw	r5,-28(fp)
 4002e10:	e13ffe17 	ldw	r4,-8(fp)
 4002e14:	4002e940 	call	4002e94 <prvWriteMessageToBuffer>
 4002e18:	e0bffc15 	stw	r2,-16(fp)

    if( xReturn > ( size_t ) 0 )
 4002e1c:	e0bffc17 	ldw	r2,-16(fp)
 4002e20:	10001626 	beq	r2,zero,4002e7c <xStreamBufferSendFromISR+0xdc>
    {
        /* Was a task waiting for the data? */
        if( prvBytesInBuffer( pxStreamBuffer ) >= pxStreamBuffer->xTriggerLevelBytes )
 4002e24:	e13ffe17 	ldw	r4,-8(fp)
 4002e28:	40036c00 	call	40036c0 <prvBytesInBuffer>
 4002e2c:	1007883a 	mov	r3,r2
 4002e30:	e0bffe17 	ldw	r2,-8(fp)
 4002e34:	10800317 	ldw	r2,12(r2)
 4002e38:	18801036 	bltu	r3,r2,4002e7c <xStreamBufferSendFromISR+0xdc>
        {
            prvSEND_COMPLETE_FROM_ISR( pxStreamBuffer, pxHigherPriorityTaskWoken );
 4002e3c:	e03ffb15 	stw	zero,-20(fp)
 4002e40:	e0bffe17 	ldw	r2,-8(fp)
 4002e44:	10800417 	ldw	r2,16(r2)
 4002e48:	10000c26 	beq	r2,zero,4002e7c <xStreamBufferSendFromISR+0xdc>
 4002e4c:	e0bffe17 	ldw	r2,-8(fp)
 4002e50:	10c00417 	ldw	r3,16(r2)
 4002e54:	e0bff717 	ldw	r2,-36(fp)
 4002e58:	d8800115 	stw	r2,4(sp)
 4002e5c:	d8000015 	stw	zero,0(sp)
 4002e60:	000f883a 	mov	r7,zero
 4002e64:	000d883a 	mov	r6,zero
 4002e68:	000b883a 	mov	r5,zero
 4002e6c:	1809883a 	mov	r4,r3
 4002e70:	40066600 	call	4006660 <xTaskGenericNotifyFromISR>
 4002e74:	e0bffe17 	ldw	r2,-8(fp)
 4002e78:	10000415 	stw	zero,16(r2)
        mtCOVERAGE_TEST_MARKER();
    }

    traceSTREAM_BUFFER_SEND_FROM_ISR( xStreamBuffer, xReturn );

    return xReturn;
 4002e7c:	e0bffc17 	ldw	r2,-16(fp)
}
 4002e80:	e037883a 	mov	sp,fp
 4002e84:	dfc00117 	ldw	ra,4(sp)
 4002e88:	df000017 	ldw	fp,0(sp)
 4002e8c:	dec00204 	addi	sp,sp,8
 4002e90:	f800283a 	ret

04002e94 <prvWriteMessageToBuffer>:
static size_t prvWriteMessageToBuffer( StreamBuffer_t * const pxStreamBuffer,
                                       const void * pvTxData,
                                       size_t xDataLengthBytes,
                                       size_t xSpace,
                                       size_t xRequiredSpace )
{
 4002e94:	defff804 	addi	sp,sp,-32
 4002e98:	dfc00715 	stw	ra,28(sp)
 4002e9c:	df000615 	stw	fp,24(sp)
 4002ea0:	df000604 	addi	fp,sp,24
 4002ea4:	e13ffd15 	stw	r4,-12(fp)
 4002ea8:	e17ffc15 	stw	r5,-16(fp)
 4002eac:	e1bffb15 	stw	r6,-20(fp)
